00324401 T _ZN5Caver10BinaryFile10WriteInt32Ei
00324269 T _ZN5Caver10BinaryFile4OpenERKSsNS0_4ModeEb
00324465 T _ZN5Caver10BinaryFile8ReadDataEPhi
003244a5 T _ZN5Caver10BinaryFile8SHA1HashEv
0032439d T _ZN5Caver10BinaryFile9ReadInt32Ev
00324485 T _ZN5Caver10BinaryFile9WriteDataEPKhi
00324249 T _ZN5Caver10BinaryFileC1ERKSsNS0_4ModeEb
00324249 T _ZN5Caver10BinaryFileC2ERKSsNS0_4ModeEb
0032430d T _ZN5Caver10BinaryFileD1Ev
0032430d T _ZN5Caver10BinaryFileD2Ev
001ce6b1 T _ZN5Caver10CaverShell10TouchBeganERKNS_7FWTouchE
001ce779 T _ZN5Caver10CaverShell10TouchEndedERKNS_7FWTouchE
001ce719 T _ZN5Caver10CaverShell10TouchMovedERKNS_7FWTouchE
001ce22d T _ZN5Caver10CaverShell11ReleaseViewEv
001ce7d9 T _ZN5Caver10CaverShell14TouchCancelledERKNS_7FWTouchE
001cd719 T _ZN5Caver10CaverShell14UpdateViewSizeEv
001cd6bd T _ZN5Caver10CaverShell15InitApplicationEv
001cd715 T _ZN5Caver10CaverShell15QuitApplicationEv
001ce379 T _ZN5Caver10CaverShell17ResumeApplicationEv
001ce305 T _ZN5Caver10CaverShell18SuspendApplicationEb
001ce621 T _ZN5Caver10CaverShell20ConvertTouchToWindowERKNS_7FWTouchE
001ce491 T _ZN5Caver10CaverShell6RenderEPNS_16RenderingContextE
001ce38d T _ZN5Caver10CaverShell6UpdateEf
001cd89d T _ZN5Caver10CaverShell8InitViewEv
002f5c05 T _ZN5Caver10fastrandomEv
002fbbdd T _ZN5Caver10FloatColor8FromHSLAEffff
0030cd9b T _ZN5Caver10FWKeyboard11AddListenerEPNS_19IFWKeyboardListenerE
0030cdb5 T _ZN5Caver10FWKeyboard14RemoveListenerEPNS_19IFWKeyboardListenerE
0030cd2d T _ZN5Caver10FWKeyboard14SendKeyUpEventEjjd
0030cc6d T _ZN5Caver10FWKeyboard14sharedKeyboardEv
0030cd6d T _ZN5Caver10FWKeyboard16SendKeyCharEventEjd
0030cced T _ZN5Caver10FWKeyboard16SendKeyDownEventEjjd
0030ce47 T _ZN5Caver10FWKeyboard18RemoveAllListenersEv
00301c39 T _ZN5Caver10GUIControl18RemoveActionTargetEPv
00301c99 T _ZN5Caver10GUIControl26SendActionsForControlEventENS0_5EventEj
00301a6d T _ZN5Caver10GUIControl30AddTargetActionForControlEventEPvRKN5boost8functionIFvS1_PNS_8GUIEventEEEENS0_5EventE
00301a49 T _ZN5Caver10GUIControlD0Ev
003019f1 T _ZN5Caver10GUIControlD1Ev
003019f1 T _ZN5Caver10GUIControlD2Ev
00323419 T _ZN5Caver10GUIMargins23LoadFromProtobufMessageERKNS_5Proto10GUIMarginsE
002a3405 T _ZN5Caver10LevelState23LoadFromProtobufMessageERKNS_5Proto10LevelStateE
002a33c5 T _ZN5Caver10LevelStateC1Ev
002a33c5 T _ZN5Caver10LevelStateC2Ev
002cfb3d T _ZN5Caver10PortalView10AnimateOutEv
002cfa0d T _ZN5Caver10PortalView12CenterAtNodeEPNS_11MapViewNodeEb
002cf7cd T _ZN5Caver10PortalView14LayoutSubviewsEv
002cfd47 T _ZN5Caver10PortalView14SetDescriptionERKSs
002cf705 T _ZN5Caver10PortalView16LayoutGotoButtonEv
002cf5c1 T _ZN5Caver10PortalView17InitWithGameStateERKN5boost10shared_ptrINS_9GameStateEEEb
002cfd51 T _ZN5Caver10PortalView19HandleKeyboardEventERKNS_16GUIKeyboardEventE
002cfc7d T _ZN5Caver10PortalView19ScrollNodeToVisibleEPNS_11MapViewNodeEb
002cfd25 T _ZN5Caver10PortalView20SetGotoButtonVisibleEb
002cfd39 T _ZN5Caver10PortalView20SetHelpButtonVisibleEb
002cfad1 T _ZN5Caver10PortalView9AnimateInEv
002ceec9 T _ZN5Caver10PortalViewC1Ev
002ceec9 T _ZN5Caver10PortalViewC2Ev
003113cf T _ZN5Caver10Quaternion17RotationAxisAngleEfRKNS_7Vector3E
0031142f T _ZN5Caver10Quaternion18FromRotationMatrixERKNS_7Matrix4E
0031163b T _ZN5Caver10Quaternion5NlerpERKS0_S2_f
003116cb T _ZN5Caver10Quaternion5SlerpERKS0_S2_f
003112c5 T _ZN5Caver10Quaternion9NormalizeEv
002a7049 T _ZN5Caver10QuestState23LoadFromProtobufMessageERKNS_5Proto10QuestStateE
002a7035 T _ZN5Caver10QuestStateC1Ev
002a7035 T _ZN5Caver10QuestStateC2Ev
002d0b8d T _ZN5Caver10QuestsView14LayoutSubviewsEv
002d0121 T _ZN5Caver10QuestsView17InitWithGameStateERKN5boost10shared_ptrINS_9GameStateEEE
002d111d T _ZN5Caver10QuestsView7DismissEv
002d0001 T _ZN5Caver10QuestsViewC1Ev
002d0001 T _ZN5Caver10QuestsViewC2Ev
002d5d7d T _ZN5Caver10StripeView14LayoutSubviewsEv
002d60d9 T _ZN5Caver10StripeView19SetTitleHorizOffsetEf
002d5fd1 T _ZN5Caver10StripeView8SetTitleERKSs
002d5e3d T _ZN5Caver10StripeView9SetHasTagEbf
002d5c81 T _ZN5Caver10StripeViewC1Ev
002d5c81 T _ZN5Caver10StripeViewC2Ev
00321349 T _ZN5Caver11AudioBuffer12FreeDataImplEv
003210e5 T _ZN5Caver11AudioBuffer12LoadFromFileERKSs
003212ed T _ZN5Caver11AudioBuffer16LoadFromFileImplERKSs
003210e9 T _ZN5Caver11AudioBuffer18InitWithStaticDataENS0_12BufferFormatEiiPh
003211c1 T _ZN5Caver11AudioBuffer23ALFormatForBufferFormatENS0_12BufferFormatE
003211d1 T _ZN5Caver11AudioBuffer23BufferFormatForALFormatEi
00321061 T _ZN5Caver11AudioBufferC1Ev
00321061 T _ZN5Caver11AudioBufferC2Ev
00321071 T _ZN5Caver11AudioBufferD1Ev
00321071 T _ZN5Caver11AudioBufferD2Ev
0032150d T _ZN5Caver11AudioPlayer9NewPlayerEv
002f69c5 T _ZN5Caver11AudioSystem12CreateDeviceEv
002f65bd T _ZN5Caver11AudioSystem12sharedSystemEv
002f6cab T _ZN5Caver11AudioSystem14SetMusicVolumeEf
002f6cb7 T _ZN5Caver11AudioSystem14SetSoundVolumeEf
002f65a9 T _ZN5Caver11AudioSystem15hasSharedSystemEv
002f6d4d T _ZN5Caver11AudioSystem15PlaySoundEffectERKN5boost13intrusive_ptrINS_11SoundEffectEEEf
002f6c99 T _ZN5Caver11AudioSystem15SetMusicEnabledEb
002f65f5 T _ZN5Caver11AudioSystem15SetSharedSystemEPS0_
002f6ca5 T _ZN5Caver11AudioSystem15SetSoundEnabledEb
002f6e41 T _ZN5Caver11AudioSystem18CanPlaySoundEffectERKN5boost13intrusive_ptrINS_11SoundEffectEEE
002f6eb5 T _ZN5Caver11AudioSystem20AddSoundEffectSourceERKN5boost13intrusive_ptrINS_17SoundEffectSourceEEE
002f68cd T _ZN5Caver11AudioSystem23AudioInterruptionDidEndEv
002f6cbd T _ZN5Caver11AudioSystem23PlaySoundEffectWithNameERKSsf
002f6825 T _ZN5Caver11AudioSystem25AudioInterruptionDidBeginEv
002f6d61 T _ZN5Caver11AudioSystem25PlaySoundEffectAfterDelayERKN5boost13intrusive_ptrINS_11SoundEffectEEEff
002f69a1 T _ZN5Caver11AudioSystem26SetCanEndAudioInterruptionEb
002f6f11 T _ZN5Caver11AudioSystem30CancelDelayedSoundEffectSourceERKN5boost13intrusive_ptrINS_17SoundEffectSourceEEE
002f68f1 T _ZN5Caver11AudioSystem31EndAudioInterruptionIfNecessaryEv
002f6ac1 T _ZN5Caver11AudioSystem5SetupEv
002f6f35 T _ZN5Caver11AudioSystem6UpdateEf
002f6725 T _ZN5Caver11AudioSystem8ShutdownEv
002f662d T _ZN5Caver11AudioSystemC1Ev
002f662d T _ZN5Caver11AudioSystemC2Ev
002f66d1 T _ZN5Caver11AudioSystemD1Ev
002f66d1 T _ZN5Caver11AudioSystemD2Ev
003218a9 T _ZN5Caver11BitsToFloatEjj
00290a75 T _ZN5Caver11CreditsView14LayoutSubviewsEv
00290b69 T _ZN5Caver11CreditsView19HandleKeyboardEventERKNS_16GUIKeyboardEventE
00290ae9 T _ZN5Caver11CreditsView9AnimateInEv
00290551 T _ZN5Caver11CreditsViewC1Ev
00290551 T _ZN5Caver11CreditsViewC2Ev
0029e2cd T _ZN5Caver11EntityClass23LoadFromProtobufMessageERKNS_5Proto11EntityClassE
0029e2a9 T _ZN5Caver11EntityClassC1Ev
0029e2a9 T _ZN5Caver11EntityClassC2Ev
0032185d T _ZN5Caver11FloatToBitsEfj
0031af81 T _ZN5Caver11FontLibrary10SystemFontEv
0031b051 T _ZN5Caver11FontLibrary11DefaultFontEv
0031ac39 T _ZN5Caver11FontLibrary12FontWithNameERKSs
0031aba9 T _ZN5Caver11FontLibrary13sharedLibraryEv
0031afe9 T _ZN5Caver11FontLibrary15SmallSystemFontEv
0031b189 T _ZN5Caver11FontLibrary16LargeDefaultFontEv
0031abe1 T _ZN5Caver11FontLibrary16SetSharedLibraryEPS0_
0031b0b9 T _ZN5Caver11FontLibrary16SmallDefaultFontEv
0031b121 T _ZN5Caver11FontLibrary22MediumSmallDefaultFontEv
0031ac1d T _ZN5Caver11FontLibrary5ClearEv
002a09b5 T _ZN5Caver11GameOptions10SaveToFileEv
002a07dd T _ZN5Caver11GameOptions12LoadFromFileERKSs
002a0761 T _ZN5Caver11GameOptions13sharedOptionsEv
002a067d T _ZN5Caver11GameOptions14defaultOptionsEv
002a0b59 T _ZN5Caver11GameOptions17ApplyAudioOptionsEv
002a0849 T _ZN5Caver11GameOptions23LoadFromProtobufMessageERKNS_5Proto11GameOptionsE
002a0631 T _ZN5Caver11GameOptionsC1Ev
002a0631 T _ZN5Caver11GameOptionsC2Ev
002a2f2d T _ZN5Caver11GuideTarget23LoadFromProtobufMessageERKNS_5Proto11GuideTargetE
002b1305 T _ZN5Caver11ItemOverlay13IsOverlayItemERKN5boost10shared_ptrINS_4ItemEEE
002b1779 T _ZN5Caver11ItemOverlay13UpdateSpritesEv
002b13a9 T _ZN5Caver11ItemOverlay15UpdateItemCountERKN5boost10shared_ptrINS_4ItemEEE
002b1275 T _ZN5Caver11ItemOverlay17InitWithGameStateERKN5boost10shared_ptrINS_9GameStateEEE
002b1765 T _ZN5Caver11ItemOverlay6UpdateEf
002b1a3d T _ZN5Caver11ItemOverlay8DrawRectEPNS_16RenderingContextERKNS_9RectangleERKNS_7Matrix4E
002b1061 T _ZN5Caver11ItemOverlayC1Ev
002b1061 T _ZN5Caver11ItemOverlayC2Ev
002c7d15 T _ZN5Caver11LevelUpView13ButtonPressedEPvPNS_8GUIEventE
002c7d41 T _ZN5Caver11LevelUpView14LayoutSubviewsEv
002c7731 T _ZN5Caver11LevelUpView17InitWithGameStateERKN5boost10shared_ptrINS_9GameStateEEE
002c7e99 T _ZN5Caver11LevelUpView6UpdateEf
002c7ea1 T _ZN5Caver11LevelUpView7DismissEv
002c7e9d T _ZN5Caver11LevelUpView8DrawRectEPNS_16RenderingContextERKNS_9RectangleERKNS_7Matrix4E
002c7705 T _ZN5Caver11LevelUpViewC1Ev
002c7705 T _ZN5Caver11LevelUpViewC2Ev
002c8159 T _ZN5Caver11LoadingView14LayoutSubviewsEv
002c815d T _ZN5Caver11LoadingView6UpdateEf
002c8161 T _ZN5Caver11LoadingView8DrawRectEPNS_16RenderingContextERKNS_9RectangleERKNS_7Matrix4E
002c8019 T _ZN5Caver11LoadingViewC1Ev
002c8019 T _ZN5Caver11LoadingViewC2Ev
002c88d5 T _ZN5Caver11MapMenuPage11UpdateTitleEv
002c8cbd T _ZN5Caver11MapMenuPage12CenterAtNodeEPNS_11MapViewNodeEb
002c914b T _ZN5Caver11MapMenuPage13ButtonPressedEPvPNS_8GUIEventE
002c8b41 T _ZN5Caver11MapMenuPage14LayoutSubviewsEv
002c8731 T _ZN5Caver11MapMenuPage17InitWithGameStateERKN5boost10shared_ptrINS_9GameStateEEEb
002c8fa1 T _ZN5Caver11MapMenuPage19ScrollNodeToVisibleEPNS_11MapViewNodeEb
002c8869 T _ZN5Caver11MapMenuPage19UpdateMapViewBoundsEv
002c9147 T _ZN5Caver11MapMenuPage23MapViewDidTapEmptySpaceEPNS_7MapViewE
002c9081 T _ZN5Caver11MapMenuPage25MapViewDidTapSelectedNodeEPNS_7MapViewE
002c8de1 T _ZN5Caver11MapMenuPage26ShowTravelToButtonFromNodeEPNS_11MapViewNodeE
002c904b T _ZN5Caver11MapMenuPage28MapViewDidSelectionDidChangeEPNS_7MapViewE
002c9049 T _ZN5Caver11MapMenuPage7DismissEv
002c8d81 T _ZN5Caver11MapMenuPage8DrawRectEPNS_16RenderingContextERKNS_9RectangleERKNS_7Matrix4E
002c82a1 T _ZN5Caver11MapMenuPageC1Ev
002c82a1 T _ZN5Caver11MapMenuPageC2Ev
002cd531 T _ZN5Caver11MapViewNode15InitWithMapNodeERKN5boost10shared_ptrINS_7MapNodeEEE
002cd515 T _ZN5Caver11MapViewNodeC1Ev
002cd515 T _ZN5Caver11MapViewNodeC2Ev
002d9a0d T _ZN5Caver11MeshBuilder12GenerateMeshEv
002d9135 T _ZN5Caver11MeshBuilder12InitWithMeshERKNS_4MeshEb
002d9b1d T _ZN5Caver11MeshBuilder14CopyDataToMeshEPNS_8MeshDataEPKfii
002d9b6b T _ZN5Caver11MeshBuilder14CopyDataToMeshEPNS_8MeshDataEPKhii
002d9bb5 T _ZN5Caver11MeshBuilder14CopyDataToMeshEPNS_8MeshDataEPKiii
002d95d1 T _ZN5Caver11MeshBuilder16CopyDataFromMeshEPfiPKNS_8MeshDataEi
002d961f T _ZN5Caver11MeshBuilder16CopyDataFromMeshEPhiPKNS_8MeshDataEi
002d96bd T _ZN5Caver11MeshBuilder16CopyDataFromMeshEPiiPKNS_8MeshDataEi
002d9545 T _ZN5Caver11MeshBuilder16InitializeNormalENS_8DataTypeEi
002d9585 T _ZN5Caver11MeshBuilder17InitializeIndicesENS_8DataTypeE
002d9999 T _ZN5Caver11MeshBuilder17TransformVerticesERKNS_7Matrix4E
002d9535 T _ZN5Caver11MeshBuilder18InitializePositionENS_8DataTypeEi
002d9565 T _ZN5Caver11MeshBuilder18SetNumTexCoordSetsEi
002d9709 T _ZN5Caver11MeshBuilder20InitWithMeshInstanceEPNS_12MeshInstanceEb
002d956b T _ZN5Caver11MeshBuilder21InitializeTexCoordSetEiNS_8DataTypeEi
002d9555 T _ZN5Caver11MeshBuilder21InitializeVertexColorENS_8DataTypeEi
002d9c05 T _ZN5Caver11MeshBuilder29InitWithMeshBuilderFaceSubsetERKS0_Pii
002da5a5 T _ZN5Caver11MeshClipper11ClippedMeshEi
002da45d T _ZN5Caver11MeshClipper13ClipWithPlaneERKNS_7Vector4E
002da3cd T _ZN5Caver11MeshClipper20InitWithMeshInstanceEPNS_12MeshInstanceERKNS_7Matrix4E
002da3b5 T _ZN5Caver11MeshClipperC1Ev
002da3b5 T _ZN5Caver11MeshClipperC2Ev
002f7c35 T _ZN5Caver11MusicPlayer10SetEnabledEb
002f7ca9 T _ZN5Caver11MusicPlayer10SetLoopingEb
002f755d T _ZN5Caver11MusicPlayer11AddPlaylistERKN5boost10shared_ptrINS_13MusicPlaylistEEE
002f7c95 T _ZN5Caver11MusicPlayer12SetSuspendedEb
002f76a5 T _ZN5Caver11MusicPlayer15PlaylistForNameERKSs
002f77d1 T _ZN5Caver11MusicPlayer17PlayMusicWithNameERKSsb
002f7933 T _ZN5Caver11MusicPlayer18SetCurrentPlaylistERKN5boost10shared_ptrINS_13MusicPlaylistEEE
002f7b7d T _ZN5Caver11MusicPlayer18UpdatePlayerVolumeEv
002f7c43 T _ZN5Caver11MusicPlayer21UpdateShouldPlayStateEv
002f7d75 T _ZN5Caver11MusicPlayer22RegisterProgramLibraryEPNS_12ProgramStateE
002f798d T _ZN5Caver11MusicPlayer23CreatePlayerForPlaylistERKN5boost10shared_ptrINS_13MusicPlaylistEEE
002f791d T _ZN5Caver11MusicPlayer6FadeInEf
002f7cb9 T _ZN5Caver11MusicPlayer6UpdateEf
002f7975 T _ZN5Caver11MusicPlayer7FadeOutEf
002f7ca3 T _ZN5Caver11MusicPlayer9SetVolumeEf
002f751d T _ZN5Caver11MusicPlayerC1Ev
002f751d T _ZN5Caver11MusicPlayerC2Ev
002ce513 T _ZN5Caver11NewMenuView10TouchBeganERKNS_7FWTouchE
002ce1b9 T _ZN5Caver11NewMenuView13ButtonPressedEPvPNS_8GUIEventE
002ce1fd T _ZN5Caver11NewMenuView14LayoutSubviewsEv
002ce2f5 T _ZN5Caver11NewMenuView20PresentFromRectangleERKNS_9RectangleE
002ce505 T _ZN5Caver11NewMenuView6UpdateEf
002ce50d T _ZN5Caver11NewMenuView7DismissEv
002ce509 T _ZN5Caver11NewMenuView8DrawRectEPNS_16RenderingContextERKNS_9RectangleERKNS_7Matrix4E
002cdec9 T _ZN5Caver11NewMenuViewC1Ev
002cdec9 T _ZN5Caver11NewMenuViewC2Ev
00310ae5 T _ZN5Caver11PolygonAreaEPKNS_7Vector2Ei
0032366d T _ZN5Caver11ProgramMath11PushVector3EPNS_12ProgramStateERKNS_7Vector3E
003236e5 T _ZN5Caver11ProgramMath13PushRectangleEPNS_12ProgramStateERKNS_9RectangleE
0032422d T _ZN5Caver11ProgramMath17RegisterLibrariesEPNS_12ProgramStateE
003240e1 T _ZN5Caver11ProgramMath19RegisterMathLibraryEPNS_12ProgramStateE
00323755 T _ZN5Caver11ProgramMath22RegisterVector3LibraryEPNS_12ProgramStateE
00323e19 T _ZN5Caver11ProgramMath24RegisterRectangleLibraryEPNS_12ProgramStateE
002f05c1 T _ZN5Caver11SceneObject10FinishLoadEv
002efeef T _ZN5Caver11SceneObject10TemplatizeERKSs
002f067d T _ZN5Caver11SceneObject11GetBindingsEPSt6vectorINS_7BindingESaIS2_EE
002f1089 T _ZN5Caver11SceneObject11RemoveGroupEPNS_16SceneObjectGroupE
002efc75 T _ZN5Caver11SceneObject12AddComponentEPNS_9ComponentE
002f17bd T _ZN5Caver11SceneObject12AddComponentERKN5boost13intrusive_ptrINS_9ComponentEEE
002f12dd T _ZN5Caver11SceneObject12UpdateBoundsEv
002f15d1 T _ZN5Caver11SceneObject13ContainsPointERKNS_7Vector2E
002f1271 T _ZN5Caver11SceneObject13HandleMessageEiPv
002f0e9d T _ZN5Caver11SceneObject13SetIdentifierERKSs
002f1111 T _ZN5Caver11SceneObject14AddChildObjectERKN5boost13intrusive_ptrIS0_EE
002f1dad T _ZN5Caver11SceneObject15SetAlwaysActiveEb
002efb53 T _ZN5Caver11SceneObject16InitWithTemplateERKN5boost13intrusive_ptrINS_14ObjectTemplateEEE
002f11df T _ZN5Caver11SceneObject17RemoveChildObjectEPS0_b
002efce9 T _ZN5Caver11SceneObject18SetInstanceScalingEf
002efebd T _ZN5Caver11SceneObject18UnlinkFromTemplateEv
002efd3d T _ZN5Caver11SceneObject18UpdateFromTemplateEv
002f0ffb T _ZN5Caver11SceneObject19PerformBindedActionEi
002efffb T _ZN5Caver11SceneObject19RemoveAllComponentsEv
002efa55 T _ZN5Caver11SceneObject19RemoveFromAllGroupsEb
002f1669 T _ZN5Caver11SceneObject20VelocityAtWorldPointERKNS_7Vector2E
002f0ab5 T _ZN5Caver11SceneObject22ValueForBindedPropertyEi
002f00d5 T _ZN5Caver11SceneObject23LoadFromProtobufMessageERKNS_5Proto11SceneObjectE
002f1541 T _ZN5Caver11SceneObject24LocalPointFromWorldPointERKNS_7Vector2E
002f14d1 T _ZN5Caver11SceneObject24WorldPointFromLocalPointERKNS_7Vector2E
002f0ca5 T _ZN5Caver11SceneObject25SetValueForBindedPropertyEiRKNS_12BindingValueE
002f1b59 T _ZN5Caver11SceneObject26GetComponentsWithInterfaceElPSt6vectorIPNS_9ComponentESaIS3_EE
002f1afd T _ZN5Caver11SceneObject27RegisterComponentInterfacesEPNS_16ComponentManagerE
002f145d T _ZN5Caver11SceneObject28RegisterForWorldBoundsUpdateEv
002f1915 T _ZN5Caver11SceneObject29RemoveComponentWithIdentifierEi
002f13f9 T _ZN5Caver11SceneObject30ExpandBoundsToIncludeLocalAABBERKNS_9RectangleE
002f08a9 T _ZN5Caver11SceneObject30GetEnumValuesForBindedPropertyEiPSt6vectorINS_12BindingValueESaIS2_EE
002f1637 T _ZN5Caver11SceneObject32LocalDirectionFromWorldDirectionERKNS_7Vector2E
002f1a69 T _ZN5Caver11SceneObject32RemoveAllComponentsWithInterfaceEl
002f1619 T _ZN5Caver11SceneObject32WorldDirectionFromLocalDirectionERKNS_7Vector2E
002f1c79 T _ZN5Caver11SceneObject6UpdateEfbb
002f042d T _ZN5Caver11SceneObject7ProcessEv
002f1d31 T _ZN5Caver11SceneObject8ActivateEv
002f1001 T _ZN5Caver11SceneObject8AddGroupEPNS_16SceneObjectGroupE
002eff57 T _ZN5Caver11SceneObject8SetSceneEPNS_5SceneE
002ef891 T _ZN5Caver11SceneObjectC1Ev
002ef891 T _ZN5Caver11SceneObjectC2Ev
002efb31 T _ZN5Caver11SceneObjectD0Ev
002ef959 T _ZN5Caver11SceneObjectD1Ev
002ef959 T _ZN5Caver11SceneObjectD2Ev
00321845 T _ZN5Caver11SoundEffect10FreeBufferEv
003217c1 T _ZN5Caver11SoundEffect10LoadBufferEv
0032172d T _ZN5Caver11SoundEffect21SaveToProtobufMessageEPNS_5Proto11SoundEffectE
003216ff T _ZN5Caver11SoundEffect23LoadFromProtobufMessageERKNS_5Proto11SoundEffectE
00321611 T _ZN5Caver11SoundEffectC1Ev
00321611 T _ZN5Caver11SoundEffectC2Ev
003216dd T _ZN5Caver11SoundEffectD0Ev
00321655 T _ZN5Caver11SoundEffectD1Ev
00321655 T _ZN5Caver11SoundEffectD2Ev
002b392d T _ZN5Caver11TargetFrame10UpdateInfoEv
002b41c5 T _ZN5Caver11TargetFrame13SetFrameWidthEf
002b3901 T _ZN5Caver11TargetFrame13SetTargetInfoERKSsib
002b38ed T _ZN5Caver11TargetFrame14LayoutSubviewsEv
002b3d69 T _ZN5Caver11TargetFrame16UpdateHealthTextEv
002b38fb T _ZN5Caver11TargetFrame17SetCharacterLevelEi
002b41a5 T _ZN5Caver11TargetFrame21HideAnimationFinishedEPvPNS_8GUIEventE
002b3ea7 T _ZN5Caver11TargetFrame4HideEv
002b3e7d T _ZN5Caver11TargetFrame4ShowEv
002b3eb1 T _ZN5Caver11TargetFrame6UpdateEf
002b4241 T _ZN5Caver11TargetFrame8DrawRectEPNS_16RenderingContextERKNS_9RectangleERKNS_7Matrix4E
002b3c9d T _ZN5Caver11TargetFrame9SetHealthEf
002b35cd T _ZN5Caver11TargetFrameC1Ev
002b35cd T _ZN5Caver11TargetFrameC2Ev
0022c811 T _ZN5Caver11WeaponTrail10AddSegmentERKNS_7Vector3ES3_f
0022c7cb T _ZN5Caver11WeaponTrail19InitWithMaxSegmentsEi
0022c8d1 T _ZN5Caver11WeaponTrail27RemoveSegmentsFromBeginningEi
0022c807 T _ZN5Caver11WeaponTrail5ClearEv
0022c989 T _ZN5Caver11WeaponTrail6FadeInEf
0022c991 T _ZN5Caver11WeaponTrail6UpdateEf
0022c981 T _ZN5Caver11WeaponTrail7FadeOutEf
0022c8ed T _ZN5Caver11WeaponTrail9SetVertexEiRKNS_7Vector3ERKNS_5ColorERKNS_7Vector2E
0022c7a9 T _ZN5Caver11WeaponTrailC1Ev
0022c7a9 T _ZN5Caver11WeaponTrailC2Ev
001cf3dd T _ZN5Caver12AnimKeysNode16UpdateFrameBlendEv
001cf37d T _ZN5Caver12AnimKeysNode17InitWithAnimationERKN5boost10shared_ptrIKNS_17KeyframeAnimationEEE
001cf3c7 T _ZN5Caver12AnimKeysNode24CreateBufferIfNeccessaryEv
001cf445 T _ZN5Caver12AnimKeysNode6UpdateEf
001cf547 T _ZN5Caver12AnimKeysNode8EvaluateEiPKNS_14FloatDataTrackE
001cf4d1 T _ZN5Caver12AnimKeysNode8EvaluateEv
001cf33d T _ZN5Caver12AnimKeysNodeC1Ev
001cf33d T _ZN5Caver12AnimKeysNodeC2Ev
002fa81d T _ZN5Caver12BindingValue15ParseFromStringERKSsNS_16BindingValueTypeE
002fa439 T _ZN5Caver12BindingValue16ValueWithProgramERKNS_7ProgramE
002fa5f5 T _ZN5Caver12BindingValue16ValueWithVector2ERKNS_7Vector2E
002fa6ad T _ZN5Caver12BindingValue16ValueWithVector3ERKNS_7Vector3E
002fa765 T _ZN5Caver12BindingValue18ValueWithRectangleERKNS_9RectangleE
002fa53d T _ZN5Caver12BindingValue19ValueWithFloatColorERKNS_10FloatColorE
002be6c9 T _ZN5Caver12GameOverView10TouchEndedERKNS_7FWTouchE
002be459 T _ZN5Caver12GameOverView13AddAnimationsEb
002be651 T _ZN5Caver12GameOverView14LayoutSubviewsEv
002be769 T _ZN5Caver12GameOverView19HandleKeyboardEventERKNS_16GUIKeyboardEventE
002be289 T _ZN5Caver12GameOverViewC1Ev
002be289 T _ZN5Caver12GameOverViewC2Ev
002fea49 T _ZN5Caver12GUIAlertView10SetMessageERKSs
002ff2cd T _ZN5Caver12GUIAlertView10TouchBeganERKNS_7FWTouchE
002ff335 T _ZN5Caver12GUIAlertView10TouchEndedERKNS_7FWTouchE
002feb41 T _ZN5Caver12GUIAlertView12AddTextFieldERKN5boost10shared_ptrINS_12GUITextFieldEEE
002fe455 T _ZN5Caver12GUIAlertView12UpdateLayoutEv
002fe0b1 T _ZN5Caver12GUIAlertView13AddAnimationsEb
002ff0a1 T _ZN5Caver12GUIAlertView13AddCustomViewERKN5boost10shared_ptrINS_7GUIViewEEE
002feced T _ZN5Caver12GUIAlertView13ButtonPressedEPvPNS_8GUIEventE
002fe44f T _ZN5Caver12GUIAlertView14LayoutSubviewsEv
002ff3b1 T _ZN5Caver12GUIAlertView14TouchCancelledERKNS_7FWTouchE
002ff0e9 T _ZN5Caver12GUIAlertView15PresentFromViewEPNS_7GUIViewE
002ff275 T _ZN5Caver12GUIAlertView19HandleKeyboardEventERKNS_16GUIKeyboardEventE
002ff411 T _ZN5Caver12GUIAlertView21TextFieldShouldReturnEPNS_12GUITextFieldE
002ff3c3 T _ZN5Caver12GUIAlertView22TextFieldDidEndEditingEPNS_12GUITextFieldE
002fe431 T _ZN5Caver12GUIAlertView25PresentAnimationDidFinishEPvPNS_8GUIEventE
002ff211 T _ZN5Caver12GUIAlertView6UpdateEf
002fed81 T _ZN5Caver12GUIAlertView7AddLinkERKSs
002ff219 T _ZN5Caver12GUIAlertView7DismissEv
002ff215 T _ZN5Caver12GUIAlertView8DrawRectEPNS_16RenderingContextERKNS_9RectangleERKNS_7Matrix4E
002fe951 T _ZN5Caver12GUIAlertView8SetTitleERKSs
002febe9 T _ZN5Caver12GUIAlertView9AddButtonERKN5boost10shared_ptrINS_9GUIButtonEEE
002fde9d T _ZN5Caver12GUIAlertViewC1Ev
002fde9d T _ZN5Caver12GUIAlertViewC2Ev
00309cd9 T _ZN5Caver12GUIAnimation14AlphaAnimationEfff
00309ee9 T _ZN5Caver12GUIAnimation14FrameAnimationERKNS_9RectangleES3_f
00309de1 T _ZN5Caver12GUIAnimation14ScaleAnimationEfff
00309ff1 T _ZN5Caver12GUIAnimation6UpdateEf
00309bf1 T _ZN5Caver12GUIAnimationC1Ev
00309bf1 T _ZN5Caver12GUIAnimationC2Ev
0030242d T _ZN5Caver12GUIFrameView13SetFrameColorERKNS_5ColorE
0030229d T _ZN5Caver12GUIFrameView14LayoutSubviewsEv
003022c9 T _ZN5Caver12GUIFrameView15SetFrameTextureERKN5boost13intrusive_ptrINS_7TextureEEEb
00302495 T _ZN5Caver12GUIFrameView8DrawRectEPNS_16RenderingContextERKNS_9RectangleERKNS_7Matrix4E
0030226d T _ZN5Caver12GUIFrameViewC1Ev
0030226d T _ZN5Caver12GUIFrameViewC2Ev
00303cfd T _ZN5Caver12GUIResponder10TouchBeganERKNS_7FWTouchE
00303d4d T _ZN5Caver12GUIResponder10TouchEndedERKNS_7FWTouchE
00303d25 T _ZN5Caver12GUIResponder10TouchMovedERKNS_7FWTouchE
00303d75 T _ZN5Caver12GUIResponder14TouchCancelledERKNS_7FWTouchE
00303d9d T _ZN5Caver12GUIResponder16HandleMouseEventERKNS_13GUIMouseEventE
00303dcf T _ZN5Caver12GUIResponder19HandleKeyboardEventERKNS_16GUIKeyboardEventE
00305cc1 T _ZN5Caver12GUITextField3NewEv
0031b839 T _ZN5Caver12IsWhiteSpaceEc
002c6c05 T _ZN5Caver12ItemInfoView13AddAnimationsEb
002c65f5 T _ZN5Caver12ItemInfoView13ButtonPressedEPvPNS_8GUIEventE
002c7375 T _ZN5Caver12ItemInfoView14LayoutSubviewsEv
002c66c5 T _ZN5Caver12ItemInfoView16EnablePurchasingEiRKN5boost13intrusive_ptrINS_11SceneObjectEEEb
002c601d T _ZN5Caver12ItemInfoView4InitEv
002c7545 T _ZN5Caver12ItemInfoView7DismissEv
002c71e9 T _ZN5Caver12ItemInfoView7SetItemERKN5boost10shared_ptrINS_4ItemEEE
002c72d5 T _ZN5Caver12ItemInfoView8SetSkillERKN5boost10shared_ptrINS_5SkillEEE
002c5ff1 T _ZN5Caver12ItemInfoViewC1Ev
002c5ff1 T _ZN5Caver12ItemInfoViewC2Ev
002e46a1 T _ZN5Caver12LightOverlay14CreateVerticesEv
002e48a9 T _ZN5Caver12LightOverlay14SetPointLightsEPKNS_10PointLightEi
002e492d T _ZN5Caver12LightOverlay16UpdateWithCameraEPNS_6CameraE
002e4dd9 T _ZN5Caver12LightOverlay4DrawEPNS_16RenderingContextE
002e4515 T _ZN5Caver12LightOverlay8SetFrameERKNS_9RectangleE
002e44d9 T _ZN5Caver12LightOverlayC1Ev
002e44d9 T _ZN5Caver12LightOverlayC2Ev
00292e41 T _ZN5Caver12MainMenuView13ButtonPressedEPvPNS_8GUIEventE
00293291 T _ZN5Caver12MainMenuView14LayoutSubviewsEv
00293a65 T _ZN5Caver12MainMenuView16AnimateButtonsInEf
00293e0f T _ZN5Caver12MainMenuView19HandleKeyboardEventERKNS_16GUIKeyboardEventE
002931c1 T _ZN5Caver12MainMenuView19UpdateAudioControlsEv
00293c19 T _ZN5Caver12MainMenuView20SetOnlineMenuVisibleEb
00293b61 T _ZN5Caver12MainMenuView21SetPrivacyButtonTitleERKSs
00293dbd T _ZN5Caver12MainMenuView22SetGoogleSignInVisibleEb
002939e9 T _ZN5Caver12MainMenuView32UpdatePrivacyButtonFrameLocationEv
00293dd5 T _ZN5Caver12MainMenuView6UpdateEf
002912a5 T _ZN5Caver12MainMenuViewC1Ev
002912a5 T _ZN5Caver12MainMenuViewC2Ev
002c9561 T _ZN5Caver12MapPopupView14LayoutSubviewsEv
002c9563 T _ZN5Caver12MapPopupView6UpdateEf
002c9569 T _ZN5Caver12MapPopupView8DrawRectEPNS_16RenderingContextERKNS_9RectangleERKNS_7Matrix4E
002c942d T _ZN5Caver12MapPopupViewC1Ev
002c942d T _ZN5Caver12MapPopupViewC2Ev
002cdccd T _ZN5Caver12MenuItemSlot10TouchBeganERKNS_7FWTouchE
002cdcbd T _ZN5Caver12MenuItemSlot11SetSelectedEb
002cd5fd T _ZN5Caver12MenuItemSlot4InitEf
002cdb91 T _ZN5Caver12MenuItemSlot6UpdateEf
002cd851 T _ZN5Caver12MenuItemSlot7SetItemERKN5boost10shared_ptrINS_4ItemEEE
002cdbb9 T _ZN5Caver12MenuItemSlot8DrawRectEPNS_16RenderingContextERKNS_9RectangleERKNS_7Matrix4E
002cd9e5 T _ZN5Caver12MenuItemSlot8SetSkillERKN5boost10shared_ptrINS_5SkillEEEb
002cd545 T _ZN5Caver12MenuItemSlotC1Ev
002cd545 T _ZN5Caver12MenuItemSlotC2Ev
002daa21 T _ZN5Caver12MeshInstance11CopyAllDataEv
002da861 T _ZN5Caver12MeshInstance12InitWithMeshERKN5boost10shared_ptrINS_4MeshEEEb
002da733 T _ZN5Caver12MeshInstance16InstanceWithMeshERKN5boost10shared_ptrINS_4MeshEEEb
002da6b9 T _ZN5Caver12MeshInstance17NumTrianglesDrawnEv
002da6c5 T _ZN5Caver12MeshInstance17ResetDrawCountersEv
002daae9 T _ZN5Caver12MeshInstance17UpdateFaceNormalsEv
002dabed T _ZN5Caver12MeshInstance20SkinWithBoneMatricesEPKNS_7Matrix4E
002da6a1 T _ZN5Caver12MeshInstance22NumStaticVerticesDrawnEv
002da6ad T _ZN5Caver12MeshInstance23NumSkinnedVerticesDrawnEv
002dac5d T _ZN5Caver12MeshInstance4DrawEPNS_16RenderingContextE
002daa8b T _ZN5Caver12MeshInstance8CopyDataERKNS_8MeshDataES3_
002da6e9 T _ZN5Caver12MeshInstanceC1Ev
002da6e9 T _ZN5Caver12MeshInstanceC2Ev
002d8019 T _ZN5Caver12MeshMaterial23LoadFromProtobufMessageERKNS_5Proto12MeshMaterialE
002dc261 T _ZN5Caver12ModelLibrary12ModelForNameERKSs
002dc159 T _ZN5Caver12ModelLibrary13sharedLibraryEv
002dc1ad T _ZN5Caver12ModelLibrary16SetSharedLibraryEPS0_
002dc561 T _ZN5Caver12ModelLibrary17AnimationForModelEPKNS_5ModelERKSs
002dc219 T _ZN5Caver12ModelLibrary5ClearEv
00310705 T _ZN5Caver12OrientedRect15OBFromRectangleERKNS_9RectangleE
00310749 T _ZN5Caver12OrientedRect26OBFromTransformedRectangleERKNS_9RectangleERKNS_7Vector2EffS6_ff
00310b51 T _ZN5Caver12PolygonIsCCWEPKNS_7Vector2Ei
00319511 T _ZN5Caver12ProgramPanicEP9lua_State
00319aed T _ZN5Caver12ProgramState10PushStringERKSs
003199ab T _ZN5Caver12ProgramState11LoadProgramERKNS_7ProgramE
00319b39 T _ZN5Caver12ProgramState11NewUserDataEjRKSs
00319af9 T _ZN5Caver12ProgramState11PushPointerEPv
00319b23 T _ZN5Caver12ProgramState11PushVector3ERKNS_7Vector3E
003197a9 T _ZN5Caver12ProgramState12FromLuaStateEP9lua_State
00319b31 T _ZN5Caver12ProgramState12NewMetatableERKSs
00319991 T _ZN5Caver12ProgramState13ExecuteStringERKSs
00319b27 T _ZN5Caver12ProgramState13PushRectangleERKNS_9RectangleE
00319bb1 T _ZN5Caver12ProgramState13RegisterClassERKSsPKNS_11LibFunctionES5_
003199ed T _ZN5Caver12ProgramState14ExecuteProgramERKNS_7ProgramE
00319a85 T _ZN5Caver12ProgramState15IntAtStackIndexEi
00319b93 T _ZN5Caver12ProgramState15RegisterLibraryERKSsPKNS_11LibFunctionE
0031984d T _ZN5Caver12ProgramState15SetParentObjectERKN5boost13intrusive_ptrINS_11SceneObjectEEE
00319ac7 T _ZN5Caver12ProgramState16BoolAtStackIndexEi
003197ed T _ZN5Caver12ProgramState16CreateChildStateEv
00319853 T _ZN5Caver12ProgramState16RemoveChildStateERKN5boost10shared_ptrIS0_EE
00319a9d T _ZN5Caver12ProgramState17FloatAtStackIndexEi
00319a73 T _ZN5Caver12ProgramState17IsIntAtStackIndexEi
0031973d T _ZN5Caver12ProgramState17PrepareForRemovalEv
00319b75 T _ZN5Caver12ProgramState17RegisterFunctionsEPKNS_11LibFunctionE
00319ab5 T _ZN5Caver12ProgramState18IsBoolAtStackIndexEi
00319a21 T _ZN5Caver12ProgramState18StringAtStackIndexEi
00319a8b T _ZN5Caver12ProgramState19IsFloatAtStackIndexEi
00319a6d T _ZN5Caver12ProgramState19PointerAtStackIndexEi
00319b1d T _ZN5Caver12ProgramState21PushValueAtStackIndexEi
003195f5 T _ZN5Caver12ProgramState22RegisterProgramLibraryEv
003199e5 T _ZN5Caver12ProgramState3PopEi
00319a0d T _ZN5Caver12ProgramState4WaitEf
00319a15 T _ZN5Caver12ProgramState5AbortEv
00319969 T _ZN5Caver12ProgramState6ResumeEi
003198bd T _ZN5Caver12ProgramState6UpdateEf
003199b5 T _ZN5Caver12ProgramState7ExecuteEi
00319aff T _ZN5Caver12ProgramState7PushIntEi
00319b17 T _ZN5Caver12ProgramState8PushBoolEb
00319b2b T _ZN5Caver12ProgramState8SetTableEi
00319b05 T _ZN5Caver12ProgramState9PushFloatEf
00319531 T _ZN5Caver12ProgramStateC1EPS0_
00319531 T _ZN5Caver12ProgramStateC2EPS0_
0031969d T _ZN5Caver12ProgramStateD1Ev
0031969d T _ZN5Caver12ProgramStateD2Ev
00319efd T _ZN5Caver12ProgramTable10BoolForKeyERKSs
0031a061 T _ZN5Caver12ProgramTable11FloatForKeyERKSs
0031a039 T _ZN5Caver12ProgramTable12SetIntForKeyERKSsi
00319f61 T _ZN5Caver12ProgramTable12StringForKeyERKSs
00319ea1 T _ZN5Caver12ProgramTable13PointerForKeyERKSs
00319f37 T _ZN5Caver12ProgramTable13SetBoolForKeyERKSsb
0031a0dd T _ZN5Caver12ProgramTable13StringAtIndexEi
0031a0a9 T _ZN5Caver12ProgramTable14SetFloatForKeyERKSsf
00319fdd T _ZN5Caver12ProgramTable15SetStringForKeyERKSsS2_
00319ed5 T _ZN5Caver12ProgramTable16SetPointerForKeyERKSsPv
00319e51 T _ZN5Caver12ProgramTable20PointerForPointerKeyEPv
00319e7f T _ZN5Caver12ProgramTable23SetPointerForPointerKeyEPvS1_
0031a005 T _ZN5Caver12ProgramTable9IntForKeyERKSs
002b527d T _ZN5Caver12PurchaseView10AnimateOutEv
002b4a91 T _ZN5Caver12PurchaseView14LayoutSubviewsEv
002b48ad T _ZN5Caver12PurchaseView14SetProductInfoERKSsSt6vectorISsSaISsEES2_f
002b4f39 T _ZN5Caver12PurchaseView17SetBuyButtonTitleERKSs
002b55d5 T _ZN5Caver12PurchaseView19HandleKeyboardEventERKNS_16GUIKeyboardEventE
002b4e9d T _ZN5Caver12PurchaseView19SetBuyButtonEnabledEb
002b4dbd T _ZN5Caver12PurchaseView19UpdateBuyButtonSizeEv
002b4f51 T _ZN5Caver12PurchaseView9AnimateInEv
002b4395 T _ZN5Caver12PurchaseViewC1Ev
002b4395 T _ZN5Caver12PurchaseViewC2Ev
00226f9b T _ZN5Caver12RemoveVertexEPNS_11VertexList_EPNS_15VertexListNode_E
002d3c51 T _ZN5Caver12SettingsView13ButtonPressedEPvPNS_8GUIEventE
002d3f2d T _ZN5Caver12SettingsView13SliderTouchUpEPvPNS_8GUIEventE
002d4079 T _ZN5Caver12SettingsView14LayoutSubviewsEv
002d3f95 T _ZN5Caver12SettingsView17InitWithGameStateERKN5boost10shared_ptrINS_9GameStateEEE
002d3df5 T _ZN5Caver12SettingsView18SliderValueChangedEPvPNS_8GUIEventE
002d3fad T _ZN5Caver12SettingsView19UpdateAudioControlsEv
002d46db T _ZN5Caver12SettingsView6UpdateEf
002d46d9 T _ZN5Caver12SettingsView7DismissEv
002d4421 T _ZN5Caver12SettingsView9AnimateInEv
002d2cad T _ZN5Caver12SettingsViewC1Ev
002d2cad T _ZN5Caver12SettingsViewC2Ev
002f96e9 T _ZN5Caver12SoundLibrary13EffectForNameERKSs
002f93c1 T _ZN5Caver12SoundLibrary13sharedLibraryEv
002f9405 T _ZN5Caver12SoundLibrary16SetSharedLibraryEPS0_
002f964d T _ZN5Caver12SoundLibrary21SaveToProtobufMessageEPNS_5Proto12SoundLibraryE
002f9aa9 T _ZN5Caver12SoundLibrary22RegisterProgramLibraryEPNS_12ProgramStateE
002f9481 T _ZN5Caver12SoundLibrary23LoadFromProtobufMessageERKNS_5Proto12SoundLibraryE
002f9845 T _ZN5Caver12SoundLibrary25BufferForResourceWithNameERKSs
002f96b9 T _ZN5Caver12SoundLibrary5ClearEv
002f952d T _ZN5Caver12SoundLibrary9AddEffectERKN5boost13intrusive_ptrINS_11SoundEffectEEE
002f9459 T _ZN5Caver12SoundLibraryC1Ev
002f9459 T _ZN5Caver12SoundLibraryC2Ev
001cefd1 T _ZN5Caver13AnimBlendNode12resultBufferEv
001ceff9 T _ZN5Caver13AnimBlendNode6UpdateEf
001cf179 T _ZN5Caver13AnimBlendNode8EvaluateEiPKNS_14FloatDataTrackE
001cf0e1 T _ZN5Caver13AnimBlendNode8EvaluateEv
001cef29 T _ZN5Caver13AnimBlendNodeC1ERKN5boost13intrusive_ptrINS_8AnimNodeEEES6_ff
001ceefd T _ZN5Caver13AnimBlendNodeC1Ev
001cef29 T _ZN5Caver13AnimBlendNodeC2ERKN5boost13intrusive_ptrINS_8AnimNodeEEES6_ff
001ceefd T _ZN5Caver13AnimBlendNodeC2Ev
003213f5 T _ZN5Caver13AudioListener11setPositionERKNS_7Vector3E
003214fd T _ZN5Caver13AudioListener11setUpVectorERKNS_7Vector3E
00321471 T _ZN5Caver13AudioListener12setDirectionERKNS_7Vector3E
00321481 T _ZN5Caver13AudioListener17UpdateOrientationEv
0032138d T _ZN5Caver13AudioListener7setGainEf
00321365 T _ZN5Caver13AudioListenerC1Ev
00321365 T _ZN5Caver13AudioListenerC2Ev
0030d5d5 T _ZN5Caver13BezierSegment15IntersectsWithXEfPiPf
002bd051 T _ZN5Caver13CharacterView13AddAnimationsEb
002bc1e9 T _ZN5Caver13CharacterView13ButtonPressedEPvPNS_8GUIEventE
002bd73d T _ZN5Caver13CharacterView14LayoutSubviewsEv
002bce81 T _ZN5Caver13CharacterView14SetLevelUpModeEv
002bc6e9 T _ZN5Caver13CharacterView16CreateIselonViewEv
002bbb69 T _ZN5Caver13CharacterView17InitWithGameStateERKN5boost10shared_ptrINS_9GameStateEEE
002bcd49 T _ZN5Caver13CharacterView21UpdateAvailablePointsEv
002bc23d T _ZN5Caver13CharacterView26CreateAttributesHeaderViewEv
002bda83 T _ZN5Caver13CharacterView31AttributePointsViewValueChangedEPNS_19AttributePointsViewE
002bda55 T _ZN5Caver13CharacterView6UpdateEf
002bda5d T _ZN5Caver13CharacterView7DismissEv
002bda59 T _ZN5Caver13CharacterView8DrawRectEPNS_16RenderingContextERKNS_9RectangleERKNS_7Matrix4E
002bb9b9 T _ZN5Caver13CharacterViewC1Ev
002bb9b9 T _ZN5Caver13CharacterViewC2Ev
00290181 T _ZN5Caver13ChooseAgeView14LayoutSubviewsEv
002902f5 T _ZN5Caver13ChooseAgeView17UpdateArrowFramesEv
002900c9 T _ZN5Caver13ChooseAgeView18SliderValueChangedEPvPNS_8GUIEventE
0028f9ad T _ZN5Caver13ChooseAgeViewC1Ev
0028f9ad T _ZN5Caver13ChooseAgeViewC2Ev
002ab2cd T _ZN5Caver13ExperienceBar10UpdateTextEv
002ab835 T _ZN5Caver13ExperienceBar13SetExperienceEiiii
002ab2b1 T _ZN5Caver13ExperienceBar14LayoutSubviewsEv
002ab7cb T _ZN5Caver13ExperienceBar16UpdateExperienceEv
002ab7a9 T _ZN5Caver13ExperienceBar17InitWithGameStateERKN5boost10shared_ptrINS_9GameStateEEE
002ab94d T _ZN5Caver13ExperienceBar6UpdateEf
002abad1 T _ZN5Caver13ExperienceBar8DrawRectEPNS_16RenderingContextERKNS_9RectangleERKNS_7Matrix4E
002aaedd T _ZN5Caver13ExperienceBarC1Ev
002aaedd T _ZN5Caver13ExperienceBarC2Ev
0027b165 T _ZN5Caver13GameSceneView10TouchBeganERKNS_7FWTouchE
0027b33b T _ZN5Caver13GameSceneView10TouchEndedERKNS_7FWTouchE
0027b331 T _ZN5Caver13GameSceneView10TouchMovedERKNS_7FWTouchE
0027a6bd T _ZN5Caver13GameSceneView14LayoutSubviewsEv
0027b345 T _ZN5Caver13GameSceneView14TouchCancelledERKNS_7FWTouchE
0027b351 T _ZN5Caver13GameSceneView15ToggleDebugInfoEv
0027ace1 T _ZN5Caver13GameSceneView16ShowNotificationERKN5boost10shared_ptrINS_16NotificationViewEEE
0027aef5 T _ZN5Caver13GameSceneView17HideItemInfoPopupEv
0027af6d T _ZN5Caver13GameSceneView17SetCurrentMenuTabERKSs
0027adf5 T _ZN5Caver13GameSceneView17ShowItemInfoPopupERKN5boost10shared_ptrINS_4ItemEEE
0027b46d T _ZN5Caver13GameSceneView19HandleKeyboardEventERKNS_16GUIKeyboardEventE
0027a6a7 T _ZN5Caver13GameSceneView20ResetSceneControllerEv
0027aaa5 T _ZN5Caver13GameSceneView23HideCinematicSkipButtonEb
0027a281 T _ZN5Caver13GameSceneView23InitWithSceneControllerERKN5boost10shared_ptrINS_19GameSceneControllerEEE
0027aff5 T _ZN5Caver13GameSceneView23SetCinematicModeEnabledEbbb
0027af93 T _ZN5Caver13GameSceneView24SetMenuButtonHighlightedEb
0027a679 T _ZN5Caver13GameSceneView26CinematicSkipButtonPressedEPvPNS_8GUIEventE
0027afc3 T _ZN5Caver13GameSceneView31SetSkillToggleButtonHighlightedEb
0027a89d T _ZN5Caver13GameSceneView6UpdateEf
0027abf1 T _ZN5Caver13GameSceneView8DrawRectEPNS_16RenderingContextERKNS_9RectangleERKNS_7Matrix4E
0027a011 T _ZN5Caver13GameSceneViewC1Ev
0027a011 T _ZN5Caver13GameSceneViewC2Ev
0027a25d T _ZN5Caver13GameSceneViewD0Ev
0027a161 T _ZN5Caver13GameSceneViewD1Ev
0027a161 T _ZN5Caver13GameSceneViewD2Ev
00217df5 T _ZN5Caver13GlowComponent11GetBindingsEPSt6vectorINS_7BindingESaIS2_EE
00217de1 T _ZN5Caver13GlowComponent17InitWithComponentEPKS0_
00217e29 T _ZN5Caver13GlowComponent19PerformBindedActionEi
00217e09 T _ZN5Caver13GlowComponent22ValueForBindedPropertyEi
00217ded T _ZN5Caver13GlowComponent23LoadFromProtobufMessageERKNS_5Proto9ComponentE
00217e1f T _ZN5Caver13GlowComponent25SetValueForBindedPropertyEiRKNS_12BindingValueE
00217dff T _ZN5Caver13GlowComponent30GetEnumValuesForBindedPropertyEiPSt6vectorINS_12BindingValueESaIS2_EE
00217d81 T _ZN5Caver13GlowComponentC2Ev
002fbf7d T _ZN5Caver13GradientColor46GradientColorByReversingAlphaPremultiplicationEv
002fbef5 T _ZN5Caver13GradientColorC1EiPfPNS_5ColorE
002fbef5 T _ZN5Caver13GradientColorC2EiPfPNS_5ColorE
00300b0d T _ZN5Caver13GUIBubbleView10TouchBeganERKNS_7FWTouchE
003009b5 T _ZN5Caver13GUIBubbleView21PresentFromRectInViewERKNS_9RectangleEPNS_7GUIViewE
00300849 T _ZN5Caver13GUIBubbleView6UpdateEf
00300871 T _ZN5Caver13GUIBubbleView8DrawRectEPNS_16RenderingContextERKNS_9RectangleERKNS_7Matrix4E
003007d1 T _ZN5Caver13GUIBubbleViewC1Ev
003007d1 T _ZN5Caver13GUIBubbleViewC2Ev
0030a999 T _ZN5Caver13GUIEffectView14LayoutSubviewsEv
0030a9b5 T _ZN5Caver13GUIEffectView6UpdateEf
0030a9ed T _ZN5Caver13GUIEffectView8DrawRectEPNS_16RenderingContextERKNS_9RectangleERKNS_7Matrix4E
0030a86d T _ZN5Caver13GUIEffectViewC1Ev
0030a86d T _ZN5Caver13GUIEffectViewC2Ev
00302269 T _ZN5Caver13GUIFileDialog3NewEv
003046ed T _ZN5Caver13GUIScrollView10TouchBeganERKNS_7FWTouchE
00304985 T _ZN5Caver13GUIScrollView10TouchEndedERKNS_7FWTouchE
003047e5 T _ZN5Caver13GUIScrollView10TouchMovedERKNS_7FWTouchE
003045d5 T _ZN5Caver13GUIScrollView13DragWithTouchERKNS_7FWTouchE
00304a2d T _ZN5Caver13GUIScrollView14TouchCancelledERKNS_7FWTouchE
00304699 T _ZN5Caver13GUIScrollView16EndDragWithTouchERKNS_7FWTouchE
00304b3d T _ZN5Caver13GUIScrollView16HandleMouseEventERKNS_13GUIMouseEventE
003044d9 T _ZN5Caver13GUIScrollView16SetContentBoundsERKNS_9RectangleE
003044f1 T _ZN5Caver13GUIScrollView18AdjustedDragOffsetERKNS_7Vector2E
003041b9 T _ZN5Caver13GUIScrollView19AdjustContentOffsetEv
003043a9 T _ZN5Caver13GUIScrollView19ScrollRectToVisibleERKNS_9RectangleEb
00303e71 T _ZN5Caver13GUIScrollView24ScretchContentViewToFillEPNS_7GUIViewE
00303f51 T _ZN5Caver13GUIScrollView6UpdateEf
00304ac5 T _ZN5Caver13GUIScrollView7HitTestERKNS_7Vector2E
003044c5 T _ZN5Caver13GUIScrollView9SetBoundsERKNS_9RectangleE
00303dfd T _ZN5Caver13GUIScrollViewC1Ev
00303dfd T _ZN5Caver13GUIScrollViewC2Ev
0030c065 T _ZN5Caver13GUITextBubble12SetMaxBoundsERKNS_9RectangleE
0030c5cd T _ZN5Caver13GUITextBubble12UpdateLayoutEv
0030c189 T _ZN5Caver13GUITextBubble13SetPegTextureERKN5boost13intrusive_ptrINS_7TextureEEERKNS_5ColorE
0030c07d T _ZN5Caver13GUITextBubble15SetFrameTextureERKN5boost13intrusive_ptrINS_7TextureEEERKNS_5ColorE
0030c42d T _ZN5Caver13GUITextBubble17FinishShowingTextEv
0030c5b1 T _ZN5Caver13GUITextBubble20UpdateLayoutIfNeededEv
0030c335 T _ZN5Caver13GUITextBubble29SetShowsIndicatorWhenFinishedEb
0030c4f9 T _ZN5Caver13GUITextBubble4DrawEPNS_16RenderingContextE
0030c437 T _ZN5Caver13GUITextBubble6UpdateEf
0030c225 T _ZN5Caver13GUITextBubble7SetTextERKSsRKNS_5ColorEf
0030bfed T _ZN5Caver13GUITextBubbleC1Ev
0030bfed T _ZN5Caver13GUITextBubbleC2Ev
0030ade5 T _ZN5Caver13GUIViewLayout10AddSubviewERKN5boost10shared_ptrIS0_EE
0030af51 T _ZN5Caver13GUIViewLayout20FrameForViewInBoundsERKNS_9RectangleE
0030b249 T _ZN5Caver13GUIViewLayout21SubviewWithIdentifierERKSs
0030acd9 T _ZN5Caver13GUIViewLayout23LoadFromProtobufMessageERKNS_5Proto13GUIViewLayoutE
0030b0b9 T _ZN5Caver13GUIViewLayout30LayoutForViewWithFrameInBoundsERKNS_9RectangleES3_f
0030afe9 T _ZN5Caver13GUIViewLayout31UpdateWithViewWithFrameinBoundsERKNS_9RectangleES3_
0030ac99 T _ZN5Caver13GUIViewLayoutC1Ev
0030ac99 T _ZN5Caver13GUIViewLayoutC2Ev
002c4419 T _ZN5Caver13InventoryView10TouchBeganERKNS_7FWTouchE
002c3f81 T _ZN5Caver13InventoryView13ButtonPressedEPvPNS_8GUIEventE
002c40f1 T _ZN5Caver13InventoryView14LayoutSubviewsEv
002c3241 T _ZN5Caver13InventoryView17InitWithGameStateERKN5boost10shared_ptrINS_9GameStateEEE
002c4685 T _ZN5Caver13InventoryView20MenuItemSlotSelectedEPNS_12MenuItemSlotE
002c4689 T _ZN5Caver13InventoryView22MenuItemSlotDeselectedEPNS_12MenuItemSlotE
002c4015 T _ZN5Caver13InventoryView23UpdateTrinketHighlightsEv
002c441d T _ZN5Caver13InventoryView32InventoryItemPanelTrinketChangedEPNS_18InventoryItemPanelE
002c4681 T _ZN5Caver13InventoryView36InventoryTrinketSlotDidBeginDraggingEPNS_20InventoryTrinketSlotE
002c4571 T _ZN5Caver13InventoryView37InventoryItemPanelTextForTrinketBonusEPNS_18InventoryItemPanelE
002c43ed T _ZN5Caver13InventoryView6UpdateEf
002c4417 T _ZN5Caver13InventoryView7DismissEv
002c4413 T _ZN5Caver13InventoryView8DrawRectEPNS_16RenderingContextERKNS_9RectangleERKNS_7Matrix4E
002c426d T _ZN5Caver13InventoryView9AnimateInEv
002c308d T _ZN5Caver13InventoryViewC1Ev
002c308d T _ZN5Caver13InventoryViewC2Ev
00201d2d T _ZN5Caver13ManaComponent11GetBindingsEPSt6vectorINS_7BindingESaIS2_EE
00201d19 T _ZN5Caver13ManaComponent17InitWithComponentEPKS0_
00201d61 T _ZN5Caver13ManaComponent19PerformBindedActionEi
00201d41 T _ZN5Caver13ManaComponent22ValueForBindedPropertyEi
00201d25 T _ZN5Caver13ManaComponent23LoadFromProtobufMessageERKNS_5Proto9ComponentE
00201d57 T _ZN5Caver13ManaComponent25SetValueForBindedPropertyEiRKNS_12BindingValueE
00201d37 T _ZN5Caver13ManaComponent30GetEnumValuesForBindedPropertyEiPSt6vectorINS_12BindingValueESaIS2_EE
00201d65 T _ZN5Caver13ManaComponent6UpdateEf
00201e5b T _ZN5Caver13ManaComponent8GainManaEi
00201cc1 T _ZN5Caver13ManaComponentC1Ev
00201cc1 T _ZN5Caver13ManaComponentC2Ev
002c8265 T _ZN5Caver13MapAnnotation4DrawEPNS_16RenderingContextE
002c8263 T _ZN5Caver13MapAnnotation4InitERKSsRKNS_7Vector2ES5_
002c821d T _ZN5Caver13MapAnnotationC1Ev
002c821d T _ZN5Caver13MapAnnotationC2Ev
002db109 T _ZN5Caver13MeshOptimizer11HashForCellERKNS0_4CellE
002dae75 T _ZN5Caver13MeshOptimizer12InitWithMeshERKN5boost10shared_ptrINS_4MeshEEE
002db009 T _ZN5Caver13MeshOptimizer12UpdateBoundsEv
002db07d T _ZN5Caver13MeshOptimizer15CellForPositionERKNS_7Vector3E
002db14d T _ZN5Caver13MeshOptimizer17BuildVertexGroupsEv
002db551 T _ZN5Caver13MeshOptimizer22BuildEdgeAdjacencyInfoEv
002db515 T _ZN5Caver13MeshOptimizer28GetVertexGroupIndicesForFaceEiPi
002dbe1d T _ZN5Caver13ModelInstance10SkinMeshesERKNS_7Matrix4E
002dbbcd T _ZN5Caver13ModelInstance13InitWithModelERKN5boost10shared_ptrIKNS_5ModelEEE
002dbdfd T _ZN5Caver13ModelInstance29ExtractSkeletonDataFromBufferEPKNS_15FloatDataBufferE
002dbf3d T _ZN5Caver13ModelInstance4DrawEPNS_16RenderingContextE
002dbba9 T _ZN5Caver13ModelInstanceC1Ev
002dbba9 T _ZN5Caver13ModelInstanceC2Ev
002f8705 T _ZN5Caver13MusicPlaylist21SaveToProtobufMessageEPNS_5Proto13MusicPlaylistE
002f8659 T _ZN5Caver13MusicPlaylist23LoadFromProtobufMessageERKNS_5Proto13MusicPlaylistE
002f863d T _ZN5Caver13MusicPlaylistC1Ev
002f863d T _ZN5Caver13MusicPlaylistC2Ev
001cd5f1 T _ZN5Caver13NewCaverShellEiPPc
002e658b T _ZN5Caver13ObjectLibrary10AddProgramERKN5boost10shared_ptrINS_7ProgramEEE
002e63eb T _ZN5Caver13ObjectLibrary10AddTextureERKN5boost13intrusive_ptrINS_7TextureEEE
002e5579 T _ZN5Caver13ObjectLibrary10SaveToFileERKSs
002e604d T _ZN5Caver13ObjectLibrary11AddTemplateERKN5boost13intrusive_ptrINS_14ObjectTemplateEEE
002e52bd T _ZN5Caver13ObjectLibrary12LoadFromFileERKSs
002e5619 T _ZN5Caver13ObjectLibrary13ImportLibraryERKN5boost10shared_ptrIS0_EE
002e6591 T _ZN5Caver13ObjectLibrary13RemoveProgramEPNS_7ProgramE
002e64d7 T _ZN5Caver13ObjectLibrary13RemoveTextureEPNS_7TextureE
002e6165 T _ZN5Caver13ObjectLibrary14RemoveTemplateEPNS_14ObjectTemplateE
002e64f5 T _ZN5Caver13ObjectLibrary15ContainsTextureEPNS_7TextureEb
002e619d T _ZN5Caver13ObjectLibrary15GetAllTemplatesEPSt6vectorIN5boost13intrusive_ptrINS_14ObjectTemplateEEESaIS5_EEb
002e4f85 T _ZN5Caver13ObjectLibrary15LibraryWithNameERKSs
002e65af T _ZN5Caver13ObjectLibrary15LoadAllProgramsEPNS_12ProgramStateE
002e5eb9 T _ZN5Caver13ObjectLibrary15TemplateForNameERKSsb
002e6379 T _ZN5Caver13ObjectLibrary17IsLibraryImportedERKSsb
002e4e75 T _ZN5Caver13ObjectLibrary17LibrarySearchPathEv
002e55f5 T _ZN5Caver13ObjectLibrary20ClearLoadedLibrariesEv
002e4e89 T _ZN5Caver13ObjectLibrary20SetLibrarySearchPathERKSs
002e570f T _ZN5Caver13ObjectLibrary21RemoveImportedLibraryEPS0_
002e531d T _ZN5Caver13ObjectLibrary21SaveModifiedLibrariesEv
002e6279 T _ZN5Caver13ObjectLibrary23GetAllImportedLibrariesEPSt6vectorIN5boost10shared_ptrIS0_EESaIS4_EEb
002e5865 T _ZN5Caver13ObjectLibrary23LoadFromProtobufMessageERKNS_5Proto13ObjectLibraryE
002e5e1d T _ZN5Caver13ObjectLibrary25CreateAtlasesFromTexturesERKSsS2_PKN5boost13intrusive_ptrINS_7TextureEEEi
002e4e99 T _ZN5Caver13ObjectLibrary43FindLibrariesDirectoryFromParentDirectoriesERKSs
002e5e21 T _ZN5Caver13ObjectLibrary7ProcessEPNS_22SceneProcessingContextE
002e572d T _ZN5Caver13ObjectLibraryD1Ev
002e572d T _ZN5Caver13ObjectLibraryD2Ev
002b2761 T _ZN5Caver13OverlayButton6UpdateEf
002b27e9 T _ZN5Caver13OverlayButton8DrawRectEPNS_16RenderingContextERKNS_9RectangleERKNS_7Matrix4E
002b2741 T _ZN5Caver13OverlayButton9FlashOnceEv
002b26a1 T _ZN5Caver13OverlayButtonC1Ev
002b26a1 T _ZN5Caver13OverlayButtonC2Ev
003132d9 T _ZN5Caver13PathExtensionERKSs
002a5ed9 T _ZN5Caver13PlayerProfile12LoadFromPathERKSsb
002a5a81 T _ZN5Caver13PlayerProfile13CreateProfileERKSs
002a5e19 T _ZN5Caver13PlayerProfile13DeleteProfileEv
002a5f79 T _ZN5Caver13PlayerProfile13LoadGameStateEv
002a5a0d T _ZN5Caver13PlayerProfile13LocalFilePathEv
002a59b1 T _ZN5Caver13PlayerProfile13ProfileExistsEv
002a677f T _ZN5Caver13PlayerProfile15ValueForCounterERKSs
002a59a9 T _ZN5Caver13PlayerProfile18InitWithIdentifierERKSs
002a679b T _ZN5Caver13PlayerProfile18SetValueForCounterERKSsi
002a6611 T _ZN5Caver13PlayerProfile19FormattedTimePlayedEdb
002a67e1 T _ZN5Caver13PlayerProfile20IncreaseCounterValueERKSsi
002a6501 T _ZN5Caver13PlayerProfile20UpdateLastPlayedTimeEv
002a5fd9 T _ZN5Caver13PlayerProfile21SaveToProtobufMessageEPNS_5Proto13PlayerProfileE
002a6405 T _ZN5Caver13PlayerProfile23LoadFromProtobufMessageERKNS_5Proto13PlayerProfileEb
002a5b2d T _ZN5Caver13PlayerProfile32LoadGameStateFromProtobufMessageERKNS_5Proto9GameStateE
002a5e79 T _ZN5Caver13PlayerProfile4LoadEv
002a5d61 T _ZN5Caver13PlayerProfile4SaveEb
002a63d5 T _ZN5Caver13PlayerProfile8FilenameEv
002a5949 T _ZN5Caver13PlayerProfileC1Ev
002a5949 T _ZN5Caver13PlayerProfileC2Ev
002f5d09 T _ZN5Caver13ResourcesPathEv
002872e5 T _ZN5Caver13SceneEdgeFade4DrawEPNS_16RenderingContextERKNS_7Matrix4E
00287205 T _ZN5Caver13SceneEdgeFadeC1Ev
00287205 T _ZN5Caver13SceneEdgeFadeC2Ev
002eea61 T _ZN5Caver13SceneGridCell11RemoveEntryEPNS_14SceneGridEntryE
002eea17 T _ZN5Caver13SceneGridCell6ResizeEi
002ee9e5 T _ZN5Caver13SceneGridCell8AddEntryEPNS_14SceneGridEntryE
002f431d T _ZN5Caver14AndroidOpenURLERKSs
0028f719 T _ZN5Caver14BadgeCountView14LayoutSubviewsEv
0028f865 T _ZN5Caver14BadgeCountView8SetCountEi
0028f4c1 T _ZN5Caver14BadgeCountViewC1Ev
0028f4c1 T _ZN5Caver14BadgeCountViewC2Ev
0029d139 T _ZN5Caver14CharacterState10RemoveItemEPNS_4ItemE
0029d2c9 T _ZN5Caver14CharacterState13AnyItemOfTypeENS_8ItemTypeE
0029d269 T _ZN5Caver14CharacterState14GetItemsOfTypeENS_8ItemTypeEPSt6vectorIN5boost10shared_ptrINS_4ItemEEESaIS6_EE
0029d1b9 T _ZN5Caver14CharacterState15HasItemWithNameERKSs
0029d309 T _ZN5Caver14CharacterState16HasSkillWithNameERKSs
0029d70d T _ZN5Caver14CharacterState16SkillDamageRangeEv
0029d511 T _ZN5Caver14CharacterState17WeaponDamageRangeEv
0029d625 T _ZN5Caver14CharacterState21ArmorDamageMultiplierEv
0029d849 T _ZN5Caver14CharacterState21TrinketBonusForArmorsERKN5boost10shared_ptrINS_4ItemEEE
0029d971 T _ZN5Caver14CharacterState21TrinketBonusForSkillsERKN5boost10shared_ptrINS_4ItemEEE
0029d091 T _ZN5Caver14CharacterState22HighestLevelItemOfTypeENS_8ItemTypeE
0029d721 T _ZN5Caver14CharacterState22TrinketBonusForWeaponsERKN5boost10shared_ptrINS_4ItemEEE
0029c68d T _ZN5Caver14CharacterState23LoadFromProtobufMessageERKNS_5Proto14CharacterStateE
0029d401 T _ZN5Caver14CharacterState23TrinketDamageMultiplierERKN5boost10shared_ptrINS_4ItemEEE
0029d685 T _ZN5Caver14CharacterState25SkillDamageRangeWithSkillERKN5boost10shared_ptrINS_5SkillEEERKNS2_INS_4ItemEEE
0029d48d T _ZN5Caver14CharacterState25WeaponDamageRangeWithItemERKN5boost10shared_ptrINS_4ItemEEES6_
0029d581 T _ZN5Caver14CharacterState29ArmorDamageMultiplierWithItemERKN5boost10shared_ptrINS_4ItemEEES6_
0029ce75 T _ZN5Caver14CharacterState31BaseExperienceForKillingMonsterEiii
0029c975 T _ZN5Caver14CharacterState32ExperiencePointsRequiredForLevelEi
0029ceb5 T _ZN5Caver14CharacterState33ExperiencePointsForKillingMonsterEii
0029cf7d T _ZN5Caver14CharacterState7AddItemERKN5boost10shared_ptrINS_4ItemEEE
0029d389 T _ZN5Caver14CharacterState8AddSkillERKN5boost10shared_ptrINS_5SkillEEE
0029d1d9 T _ZN5Caver14CharacterState9ItemCountERKN5boost10shared_ptrINS_4ItemEEE
0029d24d T _ZN5Caver14CharacterState9ItemCountERKSs
0029c645 T _ZN5Caver14CharacterStateC1Ev
0029c645 T _ZN5Caver14CharacterStateC2Ev
00313cbd T _ZN5Caver14ExecuteProgramERKSsS1_S1_bbbS1_S1_S1_
002ffcd1 T _ZN5Caver14GUIApplication14DispatchEventsEv
002ff95d T _ZN5Caver14GUIApplication17sharedApplicationEv
002ffc49 T _ZN5Caver14GUIApplication22CancelEventsWithSenderEPv
002ffbb5 T _ZN5Caver14GUIApplication31CancelEventsWithTargetAndSenderEPvS1_
002ff9ed T _ZN5Caver14GUIApplication9SendEventEPvRKN5boost8functionIFvS1_PNS_8GUIEventEEEERKNS2_10shared_ptrIvEERKNSA_IS4_EE
00302e05 T _ZN5Caver14GUILoadingView10AnimateOutEv
00302f1d T _ZN5Caver14GUILoadingView8DrawRectEPNS_16RenderingContextERKNS_9RectangleERKNS_7Matrix4E
00302cf1 T _ZN5Caver14GUILoadingView9AnimateInEv
00302c7d T _ZN5Caver14GUILoadingViewC1Ev
00302c7d T _ZN5Caver14GUILoadingViewC2Ev
00323315 T _ZN5Caver14GUIPopoverView10TouchEndedERKNS_7FWTouchE
00322cb9 T _ZN5Caver14GUIPopoverView12UpdateLayoutEv
003232f1 T _ZN5Caver14GUIPopoverView18DismissPopoverViewEv
00323231 T _ZN5Caver14GUIPopoverView20PresentFromRectangleERKNS_9RectangleEj
003232ef T _ZN5Caver14GUIPopoverView21ContainingPopoverViewEv
00322c6d T _ZN5Caver14GUIPopoverView21SetPopoverContentViewERKN5boost10shared_ptrINS_7GUIViewEEE
0032325b T _ZN5Caver14GUIPopoverView28AdjustContentFrameVerticallyENS_9RectangleE
00322b79 T _ZN5Caver14GUIPopoverView8DrawRectEPNS_16RenderingContextERKNS_9RectangleERKNS_7Matrix4E
00322a3d T _ZN5Caver14GUIPopoverViewC1Ev
00322a3d T _ZN5Caver14GUIPopoverViewC2Ev
0030bbe1 T _ZN5Caver14GUIRoundedRect12CreateSpriteEv
0030bab5 T _ZN5Caver14GUIRoundedRect15InitWithTextureERKN5boost13intrusive_ptrINS_7TextureEEE
0030ba31 T _ZN5Caver14GUIRoundedRect19InitWithTextureNameERKSs
0030bd2d T _ZN5Caver14GUIRoundedRect21CreateWithInnerBoundsERKNS_9RectangleEf
0030bb79 T _ZN5Caver14GUIRoundedRect21CreateWithOuterBoundsERKNS_9RectangleE
0030bdad T _ZN5Caver14GUIRoundedRect8SetColorENS_5ColorE
0030ba09 T _ZN5Caver14GUIRoundedRectC1Ev
0030ba09 T _ZN5Caver14GUIRoundedRectC2Ev
00226e19 T _ZN5Caver14IsConvexVertexEPNS_11VertexList_EPNS_15VertexListNode_E
001d6809 T _ZN5Caver14LightComponent11GetBindingsEPSt6vectorINS_7BindingESaIS2_EE
001d65f5 T _ZN5Caver14LightComponent15RegisterLibraryEv
001d6579 T _ZN5Caver14LightComponent17InitWithComponentEPKS0_
001d6dbd T _ZN5Caver14LightComponent18AnimateToIntensityEff
001d6afd T _ZN5Caver14LightComponent22ValueForBindedPropertyEi
001d6665 T _ZN5Caver14LightComponent23LoadFromProtobufMessageERKNS_5Proto9ComponentE
001d6b69 T _ZN5Caver14LightComponent25SetValueForBindedPropertyEiRKNS_12BindingValueE
001d6a05 T _ZN5Caver14LightComponent30GetEnumValuesForBindedPropertyEiPSt6vectorINS_12BindingValueESaIS2_EE
001d6df9 T _ZN5Caver14LightComponent6EnableEPNS_16RenderingContextEi
001d6d3d T _ZN5Caver14LightComponent6UpdateEf
001d700d T _ZN5Caver14LightComponent7DisableEPNS_16RenderingContextE
001d65c9 T _ZN5Caver14LightComponent7PrepareEv
001d64ed T _ZN5Caver14LightComponentC1Ev
001d64ed T _ZN5Caver14LightComponentC2Ev
002db965 T _ZN5Caver14MeshPrimitives4CubeEb
001d7e99 T _ZN5Caver14ModelComponent11GetBindingsEPSt6vectorINS_7BindingESaIS2_EE
001d782d T _ZN5Caver14ModelComponent12setModelNameERKSs
001d796d T _ZN5Caver14ModelComponent12UpdateBoundsEv
001d77a5 T _ZN5Caver14ModelComponent13InitWithModelERKN5boost10shared_ptrIKNS_5ModelEEE
001d770d T _ZN5Caver14ModelComponent17InitWithComponentEPKS0_
001d8189 T _ZN5Caver14ModelComponent22ValueForBindedPropertyEi
001d7be5 T _ZN5Caver14ModelComponent23LoadFromProtobufMessageERKNS_5Proto9ComponentE
001d82d5 T _ZN5Caver14ModelComponent25SetValueForBindedPropertyEiRKNS_12BindingValueE
001d78e9 T _ZN5Caver14ModelComponent7PrepareEv
001d7865 T _ZN5Caver14ModelComponent9LoadModelEv
001d7669 T _ZN5Caver14ModelComponentC1Ev
001d7669 T _ZN5Caver14ModelComponentC2Ev
002e7b55 T _ZN5Caver14ObjectTemplate11GetBindingsEPSt6vectorINS_7BindingESaIS2_EE
002e807d T _ZN5Caver14ObjectTemplate12AddComponentERKN5boost13intrusive_ptrINS_9ComponentEEE
002e7f0d T _ZN5Caver14ObjectTemplate18TemplateFromObjectERKSsPNS_11SceneObjectE
002e7f07 T _ZN5Caver14ObjectTemplate19PerformBindedActionEi
002e7ca1 T _ZN5Caver14ObjectTemplate22ValueForBindedPropertyEi
002e7acd T _ZN5Caver14ObjectTemplate23LoadFromProtobufMessageERKNS_5Proto14ObjectTemplateE
002e7dd9 T _ZN5Caver14ObjectTemplate25SetValueForBindedPropertyEiRKNS_12BindingValueE
002e7b4f T _ZN5Caver14ObjectTemplate25UpdateBindingDependenciesEv
002e7c9d T _ZN5Caver14ObjectTemplate30GetEnumValuesForBindedPropertyEiPSt6vectorINS_12BindingValueESaIS2_EE
002e7b4b T _ZN5Caver14ObjectTemplate7ProcessEv
002e7aa5 T _ZN5Caver14ObjectTemplateC1Ev
002e7aa5 T _ZN5Caver14ObjectTemplateC2Ev
00294e41 T _ZN5Caver14OnlineMenuView10AnimateOutEv
00294b45 T _ZN5Caver14OnlineMenuView13ButtonPressedEPvPNS_8GUIEventE
00294b79 T _ZN5Caver14OnlineMenuView14LayoutSubviewsEv
00294d51 T _ZN5Caver14OnlineMenuView9AnimateInEv
002945c1 T _ZN5Caver14OnlineMenuViewC1Ev
002945c1 T _ZN5Caver14OnlineMenuViewC2Ev
002e0cc3 T _ZN5Caver14ParticleSystem11AddParticleERKNS_8ParticleE
002e0ad1 T _ZN5Caver14ParticleSystem15AddParticleTypeERKN5boost13intrusive_ptrINS_7TextureEEERKNS_9RectangleE
002e09d1 T _ZN5Caver14ParticleSystem20InitWithMaxParticlesEi
002e1025 T _ZN5Caver14ParticleSystem25BuildVertexDataWithCameraERKNS_7Vector3ES3_
002e124d T _ZN5Caver14ParticleSystem25BuildVertexDataWithCameraERKNS_7Vector3ES3_RKNS_7Matrix4E
002e1491 T _ZN5Caver14ParticleSystem28BuildVertexDataWithTransformERKNS_7Matrix4E
002e1671 T _ZN5Caver14ParticleSystem4DrawEPNS_16RenderingContextE
002e0d71 T _ZN5Caver14ParticleSystem6UpdateEf
002e0f71 T _ZN5Caver14ParticleSystem9SetVertexEiRKNS_7Vector3ERKNS_7Vector2ERKNS_5ColorE
002e095d T _ZN5Caver14ParticleSystemC1Ev
002e095d T _ZN5Caver14ParticleSystemC2Ev
0029aa6d T _ZN5Caver14ProfileManager10AddProfileERKN5boost10shared_ptrINS_13PlayerProfileEEE
0029ad49 T _ZN5Caver14ProfileManager11AddDelegateEPNS_23IProfileManagerDelegateE
0029a511 T _ZN5Caver14ProfileManager13sharedManagerEv
0029a745 T _ZN5Caver14ProfileManager14GetAllProfilesEPSt6vectorIN5boost10shared_ptrINS_13PlayerProfileEEESaIS5_EE
0029ad85 T _ZN5Caver14ProfileManager14RemoveDelegateEPNS_23IProfileManagerDelegateE
0029a5f9 T _ZN5Caver14ProfileManager16SetSharedManagerERKN5boost10shared_ptrIS0_EE
0029abf9 T _ZN5Caver14ProfileManager21PlayerProfileWasSavedEPNS_13PlayerProfileEb
0029aba7 T _ZN5Caver14ProfileManager21ProfileWithIdentifierERKSs
0029ab3d T _ZN5Caver14ProfileManager27DeleteProfileWithIdentifierERKSs
0029ad25 T _ZN5Caver14ProfileManager34PlayerProfileCounterValueDidChangeEPNS_13PlayerProfileERKSsii
0029a62d T _ZN5Caver14ProfileManagerC1Ev
0029a62d T _ZN5Caver14ProfileManagerC2Ev
0029a681 T _ZN5Caver14ProfileManagerD1Ev
0029a681 T _ZN5Caver14ProfileManagerD2Ev
002eea99 T _ZN5Caver14SceneGridEntryD1Ev
002eea99 T _ZN5Caver14SceneGridEntryD2Ev
002ef065 T _ZN5Caver14SceneGridLayer10MoveObjectEPNS_14SceneGridEntryERKNS_9RectangleE
002ef1bd T _ZN5Caver14SceneGridLayer12RemoveObjectEPNS_14SceneGridEntryE
002ef365 T _ZN5Caver14SceneGridLayer13GetAllEntriesEPNS_10FastVectorIPNS_14SceneGridEntryEEE
002ef421 T _ZN5Caver14SceneGridLayer15BoundsForCellAtEii
002eed35 T _ZN5Caver14SceneGridLayer16CreateVertexDataEv
002ef22d T _ZN5Caver14SceneGridLayer18GetEntriesInBoundsERKNS_9RectangleEPNS_10FastVectorIPNS_14SceneGridEntryEEE
002ef47d T _ZN5Caver14SceneGridLayer4DrawEPNS_16RenderingContextERKNS_7Matrix4E
002eec0f T _ZN5Caver14SceneGridLayer4InitERKNS_9RectangleEffff
002eeb4d T _ZN5Caver14SceneGridLayer5ResetEv
002eee81 T _ZN5Caver14SceneGridLayer9AddObjectEPNS_14SceneGridEntryERKNS_9RectangleE
002eeaad T _ZN5Caver14SceneGridLayerD1Ev
002eeaad T _ZN5Caver14SceneGridLayerD2Ev
002f2981 T _ZN5Caver14SceneObjectLib15PushSceneObjectEPNS_12ProgramStateEPNS_11SceneObjectE
002f2a31 T _ZN5Caver14SceneObjectLib15RegisterLibraryEPNS_12ProgramStateE
002f29f5 T _ZN5Caver14SceneObjectLib28PerformCleanupForSceneObjectEPNS_12ProgramStateEPNS_11SceneObjectE
00312dc5 T _ZN5Caver14SetWindowTitleERKSs
001e0ba1 T _ZN5Caver14ShapeComponent11GetBindingsEPSt6vectorINS_7BindingESaIS2_EE
001e0855 T _ZN5Caver14ShapeComponent17InitWithComponentEPKS0_
001e12d1 T _ZN5Caver14ShapeComponent18ContainsWorldPointERKNS_7Vector2E
001e120f T _ZN5Caver14ShapeComponent19PerformBindedActionEi
001e1215 T _ZN5Caver14ShapeComponent21SetDefaultShapeOfTypeENS_5Shape4TypeE
001e0f91 T _ZN5Caver14ShapeComponent22ValueForBindedPropertyEi
001e0881 T _ZN5Caver14ShapeComponent23LoadFromProtobufMessageERKNS_5Proto9ComponentE
001e1011 T _ZN5Caver14ShapeComponent25SetValueForBindedPropertyEiRKNS_12BindingValueE
001e0ead T _ZN5Caver14ShapeComponent30GetEnumValuesForBindedPropertyEiPSt6vectorINS_12BindingValueESaIS2_EE
001e13a9 T _ZN5Caver14ShapeComponent4DrawEPNS_16RenderingContextERKNS_7Matrix4E
001e1411 T _ZN5Caver14ShapeComponent9DrawShapeEPNS_16RenderingContextERKNS_5ShapeERKNS_7Matrix4E
001e07f9 T _ZN5Caver14ShapeComponentC1Ev
001e07f9 T _ZN5Caver14ShapeComponentC2Ev
002f658d T _ZN5Caver14SizeOfDataTypeENS_8DataTypeE
0020c841 T _ZN5Caver14SkillComponent11GetBindingsEPSt6vectorINS_7BindingESaIS2_EE
0020cb51 T _ZN5Caver14SkillComponent12BeginCastingEv
0020ce6d T _ZN5Caver14SkillComponent13CancelCastingEv
0020cd95 T _ZN5Caver14SkillComponent13FinishCastingEv
0020cf15 T _ZN5Caver14SkillComponent13HandleMessageEiPv
0020ca19 T _ZN5Caver14SkillComponent15RegisterLibraryEv
0020cab7 T _ZN5Caver14SkillComponent16SetSpellTemplateERKN5boost13intrusive_ptrINS_14ObjectTemplateEEE
0020cad5 T _ZN5Caver14SkillComponent17CreateSpellObjectEv
0020c6f1 T _ZN5Caver14SkillComponent17InitWithComponentEPKS0_
0020ceb1 T _ZN5Caver14SkillComponent18HasFinishedCastingEv
0020ca0f T _ZN5Caver14SkillComponent19PerformBindedActionEi
0020ca89 T _ZN5Caver14SkillComponent21SetCastObjectTemplateERKN5boost13intrusive_ptrINS_14ObjectTemplateEEE
0020c941 T _ZN5Caver14SkillComponent22ValueForBindedPropertyEi
0020c725 T _ZN5Caver14SkillComponent23LoadFromProtobufMessageERKNS_5Proto9ComponentE
0020cd35 T _ZN5Caver14SkillComponent24UpdateCastObjectPositionEv
0020c971 T _ZN5Caver14SkillComponent25SetValueForBindedPropertyEiRKNS_12BindingValueE
0020ccdd T _ZN5Caver14SkillComponent25UpdateSpellObjectPositionEv
0020c937 T _ZN5Caver14SkillComponent30GetEnumValuesForBindedPropertyEiPSt6vectorINS_12BindingValueESaIS2_EE
0020ceef T _ZN5Caver14SkillComponent6UpdateEf
0020ca13 T _ZN5Caver14SkillComponent7PrepareEv
0020c575 T _ZN5Caver14SkillComponentC1Ev
0020c575 T _ZN5Caver14SkillComponentC2Ev
0020d4a9 T _ZN5Caver14SpellComponent11GetBindingsEPSt6vectorINS_7BindingESaIS2_EE
0020d6af T _ZN5Caver14SpellComponent12CasterObjectEv
0020d6bd T _ZN5Caver14SpellComponent13HandleMessageEiPv
0020d639 T _ZN5Caver14SpellComponent15RegisterLibraryEv
0020d6a9 T _ZN5Caver14SpellComponent15SetCasterObjectERKN5boost13intrusive_ptrINS_11SceneObjectEEE
0020d399 T _ZN5Caver14SpellComponent17InitWithComponentEPKS0_
0020d62f T _ZN5Caver14SpellComponent19PerformBindedActionEi
0020d555 T _ZN5Caver14SpellComponent22ValueForBindedPropertyEi
0020d3d9 T _ZN5Caver14SpellComponent23LoadFromProtobufMessageERKNS_5Proto9ComponentE
0020d575 T _ZN5Caver14SpellComponent25SetValueForBindedPropertyEiRKNS_12BindingValueE
0020d54b T _ZN5Caver14SpellComponent30GetEnumValuesForBindedPropertyEiPSt6vectorINS_12BindingValueESaIS2_EE
0020d6c1 T _ZN5Caver14SpellComponent4CastEv
0020d633 T _ZN5Caver14SpellComponent7PrepareEv
0020d765 T _ZN5Caver14SpellComponent9CastPointEv
0020d329 T _ZN5Caver14SpellComponentC1Ev
0020d329 T _ZN5Caver14SpellComponentC2Ev
0022b245 T _ZN5Caver14SwingComponent11GetBindingsEPSt6vectorINS_7BindingESaIS2_EE
0022b159 T _ZN5Caver14SwingComponent17InitWithComponentEPKS0_
0022b667 T _ZN5Caver14SwingComponent19PerformBindedActionEi
0022b429 T _ZN5Caver14SwingComponent22ValueForBindedPropertyEi
0022b191 T _ZN5Caver14SwingComponent23LoadFromProtobufMessageERKNS_5Proto9ComponentE
0022b471 T _ZN5Caver14SwingComponent25SetValueForBindedPropertyEiRKNS_12BindingValueE
0022b41f T _ZN5Caver14SwingComponent30GetEnumValuesForBindedPropertyEiPSt6vectorINS_12BindingValueESaIS2_EE
0022b055 T _ZN5Caver14SwingComponentC1Ev
0022b055 T _ZN5Caver14SwingComponentC2Ev
002d6801 T _ZN5Caver14TabbedMenuView13AddAnimationsEb
002d6c35 T _ZN5Caver14TabbedMenuView14LayoutSubviewsEv
002d6f45 T _ZN5Caver14TabbedMenuView14SetContentViewERKN5boost10shared_ptrINS_12MenuViewPageEEE
002d7061 T _ZN5Caver14TabbedMenuView14SetSelectedTabERKSs
002d719d T _ZN5Caver14TabbedMenuView19HandleKeyboardEventERKNS_16GUIKeyboardEventE
002d6e29 T _ZN5Caver14TabbedMenuView19UpdateContentLayoutEv
002d70fd T _ZN5Caver14TabbedMenuView25TabViewSelectionDidChangeEPNS_7TabViewE
002d6f11 T _ZN5Caver14TabbedMenuView6AddTabERKSs
002d7027 T _ZN5Caver14TabbedMenuView6UpdateEf
002d7197 T _ZN5Caver14TabbedMenuView7DismissEv
002d702b T _ZN5Caver14TabbedMenuView8DrawRectEPNS_16RenderingContextERKNS_9RectangleERKNS_7Matrix4E
002d61b9 T _ZN5Caver14TabbedMenuViewC1Ev
002d61b9 T _ZN5Caver14TabbedMenuViewC2Ev
0031eebd T _ZN5Caver14TextureLibrary13sharedLibraryEv
0031f731 T _ZN5Caver14TextureLibrary13TextureLoadedEPNS_7TextureE
0031f897 T _ZN5Caver14TextureLibrary13TotalByteSizeEv
0031f869 T _ZN5Caver14TextureLibrary14GetAllTexturesEPSt6vectorIN5boost13intrusive_ptrINS_7TextureEEESaIS5_EE
0031f5ad T _ZN5Caver14TextureLibrary14ReloadTexturesEb
0031efbd T _ZN5Caver14TextureLibrary14TextureForNameERKSsb
0031f743 T _ZN5Caver14TextureLibrary15TextureUnloadedEPNS_7TextureE
0031ef19 T _ZN5Caver14TextureLibrary16SetSharedLibraryEPS0_
0031f209 T _ZN5Caver14TextureLibrary17SetTextureForNameERKSsRKN5boost13intrusive_ptrINS_7TextureEEE
0031f8a9 T _ZN5Caver14TextureLibrary21PrintMemoryUsageStatsEv
0031f439 T _ZN5Caver14TextureLibrary24LoadTextureAtlasWithNameERKSs
0031f61d T _ZN5Caver14TextureLibrary24PurgeTexturesIfNecessaryEv
0031f771 T _ZN5Caver14TextureLibrary25RefreshUnusedTexturesListEv
0031f2b1 T _ZN5Caver14TextureLibrary26TextureFromProtobufMessageERKNS_5Proto7TextureEb
0031f5e1 T _ZN5Caver14TextureLibrary5ClearEv
0031ef7d T _ZN5Caver14TextureLibraryC1Ev
0031ef7d T _ZN5Caver14TextureLibraryC2Ev
0020e53d T _ZN5Caver15AttackComponent10StopAttackEv
0020de81 T _ZN5Caver15AttackComponent11GetBindingsEPSt6vectorINS_7BindingESaIS2_EE
0020e401 T _ZN5Caver15AttackComponent11StartAttackERKN5boost13intrusive_ptrINS_8AnimNodeEEEPNS_11SceneObjectE
0020e55f T _ZN5Caver15AttackComponent16SetDamageEnabledEb
0020dc29 T _ZN5Caver15AttackComponent17InitWithComponentEPKS0_
0020e37b T _ZN5Caver15AttackComponent19PerformBindedActionEi
0020e1dd T _ZN5Caver15AttackComponent22ValueForBindedPropertyEi
0020dcb9 T _ZN5Caver15AttackComponent23LoadFromProtobufMessageERKNS_5Proto9ComponentE
0020e261 T _ZN5Caver15AttackComponent25SetValueForBindedPropertyEiRKNS_12BindingValueE
0020e3d7 T _ZN5Caver15AttackComponent26WorldPointInsideAttackAreaERKNS_7Vector2E
0020e1d3 T _ZN5Caver15AttackComponent30GetEnumValuesForBindedPropertyEiPSt6vectorINS_12BindingValueESaIS2_EE
0020e585 T _ZN5Caver15AttackComponent6UpdateEf
0020e37f T _ZN5Caver15AttackComponent7PrepareEv
0020d98d T _ZN5Caver15AttackComponentC1Ev
0020d98d T _ZN5Caver15AttackComponentC2Ev
003215f5 T _ZN5Caver15AudioPlayerImpl10setLoopingEb
0032155d T _ZN5Caver15AudioPlayerImpl12InitWithFileERKSs
003215cf T _ZN5Caver15AudioPlayerImpl4PlayEv
003215df T _ZN5Caver15AudioPlayerImpl4StopEv
003215d7 T _ZN5Caver15AudioPlayerImpl5PauseEv
003215cd T _ZN5Caver15AudioPlayerImpl6UpdateEf
00321609 T _ZN5Caver15AudioPlayerImpl9setVolumeEf
00321539 T _ZN5Caver15AudioPlayerImplC1Ev
00321539 T _ZN5Caver15AudioPlayerImplC2Ev
00321557 T _ZN5Caver15AudioPlayerImplD0Ev
00321555 T _ZN5Caver15AudioPlayerImplD1Ev
00321555 T _ZN5Caver15AudioPlayerImplD2Ev
00226f01 T _ZN5Caver15BuildVertexListEPNS_7Vector2Ei
001f6d5d T _ZN5Caver15DamageComponent11GetBindingsEPSt6vectorINS_7BindingESaIS2_EE
001f7621 T _ZN5Caver15DamageComponent13DeliverImpactEPNS_12DamageImpactE
001f7795 T _ZN5Caver15DamageComponent13HandleMessageEiPv
001f75b1 T _ZN5Caver15DamageComponent15IsImpactBlockedERKNS_12DamageImpactE
001f73e5 T _ZN5Caver15DamageComponent15RegisterLibraryEv
001f6add T _ZN5Caver15DamageComponent17InitWithComponentEPKS0_
001f7455 T _ZN5Caver15DamageComponent18AddPotentialImpactERKN5boost13intrusive_ptrINS_11SceneObjectEEERKNS_7Vector2ES9_bRKNS_7Vector4E
001f73dd T _ZN5Caver15DamageComponent19PerformBindedActionEi
001f7225 T _ZN5Caver15DamageComponent22ValueForBindedPropertyEi
001f6b39 T _ZN5Caver15DamageComponent23LoadFromProtobufMessageERKNS_5Proto9ComponentE
001f764d T _ZN5Caver15DamageComponent23ResolvePotentialImpactsEb
001f7369 T _ZN5Caver15DamageComponent25SetValueForBindedPropertyEiRKNS_12BindingValueE
001f70a9 T _ZN5Caver15DamageComponent30GetEnumValuesForBindedPropertyEiPSt6vectorINS_12BindingValueESaIS2_EE
001f7775 T _ZN5Caver15DamageComponent6UpdateEf
001f73e1 T _ZN5Caver15DamageComponent7PrepareEv
001f6a0d T _ZN5Caver15DamageComponentC1Ev
001f6a0d T _ZN5Caver15DamageComponentC2Ev
001f8aa9 T _ZN5Caver15EntityComponent10FlashModelERKNS_5ColorEf
001f862d T _ZN5Caver15EntityComponent11GetBindingsEPSt6vectorINS_7BindingESaIS2_EE
001f8eb9 T _ZN5Caver15EntityComponent13HandleMessageEiPv
001f8a39 T _ZN5Caver15EntityComponent15RegisterLibraryEv
001f858d T _ZN5Caver15EntityComponent17InitWithComponentEPKS0_
001f89b5 T _ZN5Caver15EntityComponent18SetFacingDirectionEi
001f89cd T _ZN5Caver15EntityComponent19PerformBindedActionEi
001f8eb5 T _ZN5Caver15EntityComponent21HandleDamageCollisionEPNS_23CollisionShapeComponentES2_RKNS_13CollisionInfoE
001f8c29 T _ZN5Caver15EntityComponent21HandleGroundCollisionERKNS_20CollisionMessageDataE
001f8885 T _ZN5Caver15EntityComponent22ValueForBindedPropertyEi
001f85b5 T _ZN5Caver15EntityComponent23LoadFromProtobufMessageERKNS_5Proto9ComponentE
001f8989 T _ZN5Caver15EntityComponent25SetValueForBindedPropertyEiRKNS_12BindingValueE
001f8725 T _ZN5Caver15EntityComponent30GetEnumValuesForBindedPropertyEiPSt6vectorINS_12BindingValueESaIS2_EE
001f8b0d T _ZN5Caver15EntityComponent6UpdateEf
001f89d1 T _ZN5Caver15EntityComponent7PrepareEv
001f84f9 T _ZN5Caver15EntityComponentC1Ev
001f84f9 T _ZN5Caver15EntityComponentC2Ev
001cf7b3 T _ZN5Caver15FloatDataBuffer10AccumulateERKS0_f
001cf7df T _ZN5Caver15FloatDataBuffer10AccumulateERKS0_fRKNS_14FloatDataTrackE
001cf811 T _ZN5Caver15FloatDataBuffer17AccumulateVector3ERKS0_fjj
001cf877 T _ZN5Caver15FloatDataBuffer20AccumulateQuaternionERKS0_fjj
001cf751 T _ZN5Caver15FloatDataBuffer6ResizeEi
001cf77f T _ZN5Caver15FloatDataBuffer8FillZeroEv
001cf78f T _ZN5Caver15FloatDataBuffer8MultiplyEf
001cf719 T _ZN5Caver15FloatDataBufferC1Ei
001cf719 T _ZN5Caver15FloatDataBufferC2Ei
001cf73f T _ZN5Caver15FloatDataBufferD1Ev
001cf73f T _ZN5Caver15FloatDataBufferD2Ev
002adae3 T _ZN5Caver15GameOverlayView11CancelInputEv
002add6d T _ZN5Caver15GameOverlayView14LayoutSubviewsEv
002ad341 T _ZN5Caver15GameOverlayView15SetCurrentSkillERKN5boost10shared_ptrINS_5SkillEEE
002ae745 T _ZN5Caver15GameOverlayView16ControlForButtonEPNS_9GUIButtonE
002ae5d9 T _ZN5Caver15GameOverlayView16LayoutForSubviewERKSsPNS_7GUIViewE
002ae3f1 T _ZN5Caver15GameOverlayView16SetSubviewLayoutEPNS_7GUIViewERKN5boost10shared_ptrINS_13GUIViewLayoutEEE
002ad125 T _ZN5Caver15GameOverlayView17InitWithGameStateERKN5boost10shared_ptrINS_9GameStateEEE
002adb2d T _ZN5Caver15GameOverlayView17SetControlsHiddenEb
002adc8f T _ZN5Caver15GameOverlayView17SetShowsUseButtonEb
002ae7f5 T _ZN5Caver15GameOverlayView19HandleKeyboardEventERKNS_16GUIKeyboardEventE
002ae529 T _ZN5Caver15GameOverlayView20SubviewForIdentifierERKSs
002accb9 T _ZN5Caver15GameOverlayView22ButtonHighlightChangedEPvPNS_8GUIEventE
002ae54d T _ZN5Caver15GameOverlayView22LayoutBoundsForSubviewERKSs
002adcd9 T _ZN5Caver15GameOverlayView22SetSkillButtonDisabledEb
002adc39 T _ZN5Caver15GameOverlayView25SetGameControlButtonStateENS_17GameControlButtonEb
002ad44d T _ZN5Caver15GameOverlayView25UpdateUseButtonVisibilityEv
002ae7b3 T _ZN5Caver15GameOverlayView26SetControlButtonsInvisibleEb
002adc19 T _ZN5Caver15GameOverlayView27UpdateSkillButtonVisibilityEv
002ad469 T _ZN5Caver15GameOverlayView27UpdateSwingButtonVisibilityEv
002ad429 T _ZN5Caver15GameOverlayView33UpdateSkillToggleButtonVisibilityEv
002ae67d T _ZN5Caver15GameOverlayView6LayoutEv
002aea0d T _ZN5Caver15GameOverlayView7HitTestERKNS_7Vector2E
002ad4d9 T _ZN5Caver15GameOverlayView9SetLayoutERKN5boost10shared_ptrINS_13GUIViewLayoutEEE
002abbed T _ZN5Caver15GameOverlayViewC1Ev
002abbed T _ZN5Caver15GameOverlayViewC2Ev
002adac1 T _ZN5Caver15GameOverlayViewD0Ev
002ad845 T _ZN5Caver15GameOverlayViewD1Ev
002ad845 T _ZN5Caver15GameOverlayViewD2Ev
002c0655 T _ZN5Caver15GuideToggleView13SwitchToggledEPvPNS_8GUIEventE
002c0671 T _ZN5Caver15GuideToggleView14LayoutSubviewsEv
002c040d T _ZN5Caver15GuideToggleViewC1Ev
002c040d T _ZN5Caver15GuideToggleViewC2Ev
0030c9c5 T _ZN5Caver15GUITexturedRect15InitWithTextureERKN5boost13intrusive_ptrINS_7TextureEEERKNS_7Vector2E
0030cb61 T _ZN5Caver15GUITexturedRect15InitWithTextureERKN5boost13intrusive_ptrINS_7TextureEEERKNS_9RectangleEb
0030ca27 T _ZN5Caver15GUITexturedRect16CreateVertexDataEv
0030cbad T _ZN5Caver15GUITexturedRect16CreateWithBoundsERKNS_9RectangleEb
0030cad9 T _ZN5Caver15GUITexturedRect19InitWithTextureNameERKSsRKNS_7Vector2E
0030c99f T _ZN5Caver15GUITexturedRect5ResetEv
0030c989 T _ZN5Caver15GUITexturedRectC1Ev
0030c989 T _ZN5Caver15GUITexturedRectC2Ev
001fca5f T _ZN5Caver15HealthComponent10TakeDamageEi
001fc685 T _ZN5Caver15HealthComponent11GetBindingsEPSt6vectorINS_7BindingESaIS2_EE
001fd2b9 T _ZN5Caver15HealthComponent13DrawHealthBarEPNS_16RenderingContextEPKNS_6CameraERKNS_9RectangleE
001fc9c9 T _ZN5Caver15HealthComponent15RegisterLibraryEv
001fc55d T _ZN5Caver15HealthComponent17InitWithComponentEPKS0_
001fc99d T _ZN5Caver15HealthComponent19PerformBindedActionEi
001fcc29 T _ZN5Caver15HealthComponent20TakeDamageWithImpactEPNS_12DamageImpactE
001fc915 T _ZN5Caver15HealthComponent22ValueForBindedPropertyEi
001fc591 T _ZN5Caver15HealthComponent23LoadFromProtobufMessageERKNS_5Proto9ComponentE
001fc965 T _ZN5Caver15HealthComponent25SetValueForBindedPropertyEiRKNS_12BindingValueE
001fca81 T _ZN5Caver15HealthComponent28ApplyFireArmorDamageToObjectEPNS_11SceneObjectE
001fc82d T _ZN5Caver15HealthComponent30GetEnumValuesForBindedPropertyEiPSt6vectorINS_12BindingValueESaIS2_EE
001fd12d T _ZN5Caver15HealthComponent4DrawEPNS_16RenderingContextERKNS_7Matrix4E
001fcf2d T _ZN5Caver15HealthComponent6UpdateEf
001fc9a1 T _ZN5Caver15HealthComponent7PrepareEv
001fc4d5 T _ZN5Caver15HealthComponentC1Ev
001fc4d5 T _ZN5Caver15HealthComponentC2Ev
002e02c1 T _ZN5Caver15ParticleEmitter14CreateFromTypeENS0_4TypeE
002dffb9 T _ZN5Caver15ParticleEmitter21SaveToProtobufMessageEPNS_5Proto15ParticleEmitterE
002e00f1 T _ZN5Caver15ParticleEmitter23LoadFromProtobufMessageERKNS_5Proto15ParticleEmitterE
002e05b9 T _ZN5Caver15ParticleEmitter27ConvertLocalParticleToWorldEPNS_8ParticleE
002dff4d T _ZN5Caver15ParticleEmitter5CloneEv
001dd875 T _ZN5Caver15PortalComponent10DeactivateEv
001dd19d T _ZN5Caver15PortalComponent11GetBindingsEPSt6vectorINS_7BindingESaIS2_EE
001dd931 T _ZN5Caver15PortalComponent13HandleMessageEiPv
001dd451 T _ZN5Caver15PortalComponent15RegisterLibraryEv
001dd011 T _ZN5Caver15PortalComponent17InitWithComponentEPKS0_
001dd3eb T _ZN5Caver15PortalComponent19PerformBindedActionEi
001dd2f1 T _ZN5Caver15PortalComponent22ValueForBindedPropertyEi
001dd051 T _ZN5Caver15PortalComponent23LoadFromProtobufMessageERKNS_5Proto9ComponentE
001dd32d T _ZN5Caver15PortalComponent25SetValueForBindedPropertyEiRKNS_12BindingValueE
001dd2e7 T _ZN5Caver15PortalComponent30GetEnumValuesForBindedPropertyEiPSt6vectorINS_12BindingValueESaIS2_EE
001dd809 T _ZN5Caver15PortalComponent5EnterEv
001dd3f1 T _ZN5Caver15PortalComponent7PrepareEv
001dd4c1 T _ZN5Caver15PortalComponent8ActivateEv
001dcee5 T _ZN5Caver15PortalComponentC1Ev
001dcee5 T _ZN5Caver15PortalComponentC2Ev
002f5bd5 T _ZN5Caver15seed_fastrandomEi
001df551 T _ZN5Caver15ShadowComponent11GetBindingsEPSt6vectorINS_7BindingESaIS2_EE
001df931 T _ZN5Caver15ShadowComponent16AddShadowSegmentERKNS_7Vector2ES3_ffPNS_10FastVectorINS_12ShadowVertexEEE
001df451 T _ZN5Caver15ShadowComponent17InitWithComponentEPKS0_
001df85d T _ZN5Caver15ShadowComponent18UpdateShadowBoundsEv
001df76b T _ZN5Caver15ShadowComponent19PerformBindedActionEi
001dfa81 T _ZN5Caver15ShadowComponent22CreateShadowWithShapesEPPNS_23CollisionShapeComponentEiPNS_10FastVectorINS_12ShadowVertexEEE
001df6ad T _ZN5Caver15ShadowComponent22ValueForBindedPropertyEi
001df481 T _ZN5Caver15ShadowComponent23LoadFromProtobufMessageERKNS_5Proto9ComponentE
001df6e5 T _ZN5Caver15ShadowComponent25SetValueForBindedPropertyEiRKNS_12BindingValueE
001df6a3 T _ZN5Caver15ShadowComponent30GetEnumValuesForBindedPropertyEiPSt6vectorINS_12BindingValueESaIS2_EE
001df771 T _ZN5Caver15ShadowComponent7PrepareEv
001df3d9 T _ZN5Caver15ShadowComponentC1Ev
001df3d9 T _ZN5Caver15ShadowComponentC2Ev
002d5823 T _ZN5Caver15SkillPickerView10TouchBeganERKNS_7FWTouchE
002d53d9 T _ZN5Caver15SkillPickerView13AddAnimationsEb
002d51ed T _ZN5Caver15SkillPickerView14LayoutSubviewsEv
002d5125 T _ZN5Caver15SkillPickerView15SetSlotSelectedEib
002d49f1 T _ZN5Caver15SkillPickerView17InitWithGameStateERKN5boost10shared_ptrINS_9GameStateEEE
002d5925 T _ZN5Caver15SkillPickerView19HandleKeyboardEventERKNS_16GUIKeyboardEventE
002d5829 T _ZN5Caver15SkillPickerView20MenuItemSlotSelectedEPNS_12MenuItemSlotE
002d58e3 T _ZN5Caver15SkillPickerView22MenuItemSlotDeselectedEPNS_12MenuItemSlotE
002d57f5 T _ZN5Caver15SkillPickerView6UpdateEf
002d57fd T _ZN5Caver15SkillPickerView7DismissEv
002d57f9 T _ZN5Caver15SkillPickerView8DrawRectEPNS_16RenderingContextERKNS_9RectangleERKNS_7Matrix4E
002d49b9 T _ZN5Caver15SkillPickerViewC1Ev
002d49b9 T _ZN5Caver15SkillPickerViewC2Ev
001e2a19 T _ZN5Caver15SpriteComponent10SetTextureERKN5boost13intrusive_ptrINS_7TextureEEE
001e2bc1 T _ZN5Caver15SpriteComponent11GetBindingsEPSt6vectorINS_7BindingESaIS2_EE
001e293d T _ZN5Caver15SpriteComponent17InitWithComponentEPKS0_
001e2c59 T _ZN5Caver15SpriteComponent22ValueForBindedPropertyEi
001e2a85 T _ZN5Caver15SpriteComponent23LoadFromProtobufMessageERKNS_5Proto9ComponentE
001e2ce9 T _ZN5Caver15SpriteComponent25SetValueForBindedPropertyEiRKNS_12BindingValueE
001e2b31 T _ZN5Caver15SpriteComponent7PrepareEv
001e296d T _ZN5Caver15SpriteComponentC1ERKN5boost13intrusive_ptrINS_7TextureEEE
001e2899 T _ZN5Caver15SpriteComponentC1Ev
001e296d T _ZN5Caver15SpriteComponentC2ERKN5boost13intrusive_ptrINS_7TextureEEE
001e2899 T _ZN5Caver15SpriteComponentC2Ev
002a7299 T _ZN5Caver15StateProperties23LoadFromProtobufMessageERKNS_5Proto15StatePropertiesE
002a72f5 T _ZN5Caver15StateProperties7AddFlagERKSs
002a7399 T _ZN5Caver15StateProperties7HasFlagERKSs
002a7281 T _ZN5Caver15StatePropertiesC1Ev
002a7281 T _ZN5Caver15StatePropertiesC2Ev
0029c211 T _ZN5Caver15StoreController13UnlockProductERKSs
0029bde5 T _ZN5Caver15StoreController16SharedControllerEv
0029be99 T _ZN5Caver15StoreController19SetSharedControllerERKN5boost10shared_ptrIS0_EE
0029becd T _ZN5Caver15StoreController20IsGuideUnlockedCheckEv
0029c05d T _ZN5Caver15StoreController20IsNoAdsUnlockedCheckEv
0029c125 T _ZN5Caver15StoreController22IsProductUnlockedCheckERKSs
0029bf95 T _ZN5Caver15StoreController26IsCoinDoublerUnlockedCheckEv
0029c389 T _ZN5Caver15StoreController30ResetProductUnlocksToPurchasesEv
00226fc9 T _ZN5Caver16BuildConcaveListEPNS_7Vector2EiPNS_11VertexList_E
002e3b75 T _ZN5Caver16CameraController10ResetFocusEv
002e3ceb T _ZN5Caver16CameraController11FollowShapeERKN5boost13intrusive_ptrINS_14ShapeComponentEEERKNS_9RectangleE
002e3a25 T _ZN5Caver16CameraController12FocusAtPointERKNS_7Vector3Eb
002e3a8d T _ZN5Caver16CameraController12FocusAtShapeERKN5boost13intrusive_ptrINS_14ShapeComponentEEERKNS_9RectangleEb
002e3cbd T _ZN5Caver16CameraController12FollowObjectERKN5boost13intrusive_ptrINS_11SceneObjectEEERKNS_7Vector3E
002e3b85 T _ZN5Caver16CameraController13StopFollowingEv
002e3bbd T _ZN5Caver16CameraController16FocusAtRectangleERKNS_9RectangleEfb
002e3d3f T _ZN5Caver16CameraController21GotoTargetImmediatelyEv
002e3d65 T _ZN5Caver16CameraController22RegisterProgramLibraryEPNS_12ProgramStateE
002e3d5b T _ZN5Caver16CameraController6RumbleEv
002e36e5 T _ZN5Caver16CameraController6UpdateEf
002e35c5 T _ZN5Caver16CameraControllerC1Ev
002e35c5 T _ZN5Caver16CameraControllerC2Ev
001d0e41 T _ZN5Caver16CollisionPairSet17RegisterCollisionEPNS_23CollisionShapeComponentES2_
001d11d5 T _ZN5Caver16CollisionPairSet5PurgeEv
001e67d1 T _ZN5Caver16ComponentFactory13sharedManagerEv
001e6877 T _ZN5Caver16ComponentFactory22RegisterComponentClassERKSsN5boost8functionIFPNS_9ComponentEvEEE
001e6abf T _ZN5Caver16ComponentFactory25NewComponentWithClassNameERKSs
001e77b7 T _ZN5Caver16ComponentManager13PurgeInactiveEv
001e7a29 T _ZN5Caver16ComponentManager15ManageInterfaceEl
001e782f T _ZN5Caver16ComponentManager19IsInterfacesManagedEl
001e77d9 T _ZN5Caver16ComponentManager26RegisterComponentInterfaceElPNS_9ComponentE
001e7875 T _ZN5Caver16ComponentManager31ComponentCollectionForInterfaceEl
001e7795 T _ZN5Caver16ComponentManager5PurgeEv
001e776d T _ZN5Caver16ComponentManagerC1Ev
001e776d T _ZN5Caver16ComponentManagerC2Ev
002aa3f9 T _ZN5Caver16DebugInfoOverlay14FormatByteSizeEi
002aa2c9 T _ZN5Caver16DebugInfoOverlay14LayoutSubviewsEv
002aa131 T _ZN5Caver16DebugInfoOverlay14SetNumVerticesEii
002aa23d T _ZN5Caver16DebugInfoOverlay15SetNumTrianglesEi
002aa0a9 T _ZN5Caver16DebugInfoOverlay21SetTextureMemoryUsageEi
002a9fbd T _ZN5Caver16DebugInfoOverlay6SetFPSEf
002a9d99 T _ZN5Caver16DebugInfoOverlay6ToggleEv
002aa355 T _ZN5Caver16DebugInfoOverlay6UpdateEf
002aa3dd T _ZN5Caver16DebugInfoOverlay8DrawRectEPNS_16RenderingContextERKNS_9RectangleERKNS_7Matrix4E
002a9d0d T _ZN5Caver16DebugInfoOverlayC1Ev
002a9d0d T _ZN5Caver16DebugInfoOverlayC2Ev
003136f9 T _ZN5Caver16DeleteFileAtPathERKSs
00313509 T _ZN5Caver16FileExistsAtPathERKSs
003211e5 T _ZN5Caver16GetAudioFileDataERKSsPNS_11AudioBuffer12BufferFormatEPPvPiS7_
00302159 T _ZN5Caver16GUIDraggableItem10TouchEndedERKNS_7FWTouchE
00302035 T _ZN5Caver16GUIDraggableItem10TouchMovedERKNS_7FWTouchE
00301ff9 T _ZN5Caver16GUIDraggableItem14LocationInViewEPNS_7GUIViewE
003021d9 T _ZN5Caver16GUIDraggableItem14TouchCancelledERKNS_7FWTouchE
00301f9d T _ZN5Caver16GUIDraggableItem22SetLocationInSuperviewERKNS_7Vector2E
0030ab0d T _ZN5Caver16GUIPropertyValue17InterpolatedValueERKS0_S2_f
003162a7 T _ZN5Caver16GUITextFieldImpl10TouchEndedERKNS_7FWTouchE
00316351 T _ZN5Caver16GUITextFieldImpl10UpdateFontEv
003162cd T _ZN5Caver16GUITextFieldImpl10UpdateTextEv
00315ed5 T _ZN5Caver16GUITextFieldImpl11StopEditingEv
0031622b T _ZN5Caver16GUITextFieldImpl12StartEditingEb
00315f0d T _ZN5Caver16GUITextFieldImpl14LayoutSubviewsEv
003161e7 T _ZN5Caver16GUITextFieldImpl18TextInputDidFinishEv
00316247 T _ZN5Caver16GUITextFieldImpl20BecomeFirstResponderEv
00316275 T _ZN5Caver16GUITextFieldImpl20ResignFirstResponderEv
003161d1 T _ZN5Caver16GUITextFieldImpl21SendValueChangedEventEv
003160ad T _ZN5Caver16GUITextFieldImpl22TextInputTextDidChangeERKSs
00315f95 T _ZN5Caver16GUITextFieldImpl6UpdateEf
00315fd9 T _ZN5Caver16GUITextFieldImpl8DrawRectEPNS_16RenderingContextERKNS_9RectangleERKNS_7Matrix4E
00315c59 T _ZN5Caver16GUITextFieldImplC1Ev
00315c59 T _ZN5Caver16GUITextFieldImplC2Ev
00315eeb T _ZN5Caver16GUITextFieldImplD0Ev
00315dd9 T _ZN5Caver16GUITextFieldImplD1Ev
00315dd9 T _ZN5Caver16GUITextFieldImplD2Ev
002c52cd T _ZN5Caver16ItemBuyPopupView13ButtonPressedEPvPNS_8GUIEventE
002c4a75 T _ZN5Caver16ItemBuyPopupView14LayoutSubviewsEv
002c4a79 T _ZN5Caver16ItemBuyPopupView4InitERKN5boost10shared_ptrINS_4ItemEEEi
002c53ed T _ZN5Caver16ItemBuyPopupView6UpdateEf
002c548d T _ZN5Caver16ItemBuyPopupView7DismissEv
002c53f1 T _ZN5Caver16ItemBuyPopupView8DrawRectEPNS_16RenderingContextERKNS_9RectangleERKNS_7Matrix4E
002c4a4d T _ZN5Caver16ItemBuyPopupViewC1Ev
002c4a4d T _ZN5Caver16ItemBuyPopupViewC2Ev
002ce8c5 T _ZN5Caver16NotificationView14LayoutSubviewsEv
002ce689 T _ZN5Caver16NotificationView4InitERKN5boost13intrusive_ptrINS_7TextureEEERKSs
002ce8c9 T _ZN5Caver16NotificationView6UpdateEf
002cea65 T _ZN5Caver16NotificationView8DrawRectEPNS_16RenderingContextERKNS_9RectangleERKNS_7Matrix4E
002ce63d T _ZN5Caver16NotificationViewC1Ev
002ce63d T _ZN5Caver16NotificationViewC2Ev
0028f2c5 T _ZN5Caver16OnlineController16SharedControllerEv
0028f371 T _ZN5Caver16OnlineController19SetSharedControllerERKN5boost10shared_ptrIS0_EE
001daf1d T _ZN5Caver16OverlayComponent11GetBindingsEPSt6vectorINS_7BindingESaIS2_EE
001daf09 T _ZN5Caver16OverlayComponent17InitWithComponentEPKS0_
001daf51 T _ZN5Caver16OverlayComponent19PerformBindedActionEi
001daf31 T _ZN5Caver16OverlayComponent22ValueForBindedPropertyEi
001daf15 T _ZN5Caver16OverlayComponent23LoadFromProtobufMessageERKNS_5Proto9ComponentE
001daf47 T _ZN5Caver16OverlayComponent25SetValueForBindedPropertyEiRKNS_12BindingValueE
001daf27 T _ZN5Caver16OverlayComponent30GetEnumValuesForBindedPropertyEiPSt6vectorINS_12BindingValueESaIS2_EE
001daeb9 T _ZN5Caver16OverlayComponentC2Ev
00297029 T _ZN5Caver16ProfilePanelView10AnimateOutEv
0029609d T _ZN5Caver16ProfilePanelView13ButtonPressedEPvPNS_8GUIEventE
002972e5 T _ZN5Caver16ProfilePanelView13CreateProfileEv
00297f05 T _ZN5Caver16ProfilePanelView13DeleteProfileEv
00296d09 T _ZN5Caver16ProfilePanelView14LayoutSubviewsEv
00297725 T _ZN5Caver16ProfilePanelView14ShowNamePromptEv
002960f5 T _ZN5Caver16ProfilePanelView15InitWithProfileERKN5boost10shared_ptrINS_13PlayerProfileEEE
00297fb9 T _ZN5Caver16ProfilePanelView21AlertViewWasDismissedEPNS_12GUIAlertViewE
00297ffd T _ZN5Caver16ProfilePanelView21TextFieldShouldReturnEPNS_12GUITextFieldE
00297359 T _ZN5Caver16ProfilePanelView22ShowDeleteConfirmationEv
00297ff9 T _ZN5Caver16ProfilePanelView22TextFieldDidEndEditingEPNS_12GUITextFieldE
00297b81 T _ZN5Caver16ProfilePanelView27DeleteTextFieldValueChangedEPvPNS_8GUIEventE
00297f15 T _ZN5Caver16ProfilePanelView29AlertViewClickedButtonAtIndexEPNS_12GUIAlertViewEi
002970a9 T _ZN5Caver16ProfilePanelView6UpdateEf
002972e1 T _ZN5Caver16ProfilePanelView8DrawRectEPNS_16RenderingContextERKNS_9RectangleERKNS_7Matrix4E
00296fb1 T _ZN5Caver16ProfilePanelView9AnimateInEv
002953bd T _ZN5Caver16ProfilePanelViewC1Ev
002953bd T _ZN5Caver16ProfilePanelViewC2Ev
001de465 T _ZN5Caver16ProgramComponent10FinishLoadEv
001ddf0d T _ZN5Caver16ProgramComponent11GetBindingsEPSt6vectorINS_7BindingESaIS2_EE
001de471 T _ZN5Caver16ProgramComponent13HandleMessageEiPv
001de3f5 T _ZN5Caver16ProgramComponent15RegisterLibraryEv
001de2ed T _ZN5Caver16ProgramComponent15ResetIfFinishedEv
001ddc91 T _ZN5Caver16ProgramComponent17InitWithComponentEPKS0_
001de2df T _ZN5Caver16ProgramComponent19PerformBindedActionEi
001de159 T _ZN5Caver16ProgramComponent22ValueForBindedPropertyEi
001ddce5 T _ZN5Caver16ProgramComponent23LoadFromProtobufMessageERKNS_5Proto9ComponentE
001de20d T _ZN5Caver16ProgramComponent25SetValueForBindedPropertyEiRKNS_12BindingValueE
001de061 T _ZN5Caver16ProgramComponent30GetEnumValuesForBindedPropertyEiPSt6vectorINS_12BindingValueESaIS2_EE
001de309 T _ZN5Caver16ProgramComponent7ExecuteEv
001de3f1 T _ZN5Caver16ProgramComponent7PrepareEv
001de2e3 T _ZN5Caver16ProgramComponent7ProcessEPSt6vectorIN5boost13intrusive_ptrINS_9ComponentEEESaIS5_EE
001ddc19 T _ZN5Caver16ProgramComponentC1Ev
001ddc19 T _ZN5Caver16ProgramComponentC2Ev
002fc679 T _ZN5Caver16RenderingContext10AddProgramEjRKN5boost10shared_ptrINS_16RenderingProgramEEE
002fcad1 T _ZN5Caver16RenderingContext10DrawArraysEiii
002fc7c9 T _ZN5Caver16RenderingContext10UseProgramEj
002fc839 T _ZN5Caver16RenderingContext10UseProgramERKN5boost10shared_ptrINS_16RenderingProgramEEE
002fc909 T _ZN5Caver16RenderingContext11BindTextureEPNS_7TextureE
002fcb1d T _ZN5Caver16RenderingContext11DrawTextureERKN5boost13intrusive_ptrINS_7TextureEEERKNS_9RectangleES9_f
002fc103 T _ZN5Caver16RenderingContext11SetViewportERKNS_9RectangleE
002fcaf5 T _ZN5Caver16RenderingContext12DrawElementsEiiNS_8DataTypeEPKv
002fc589 T _ZN5Caver16RenderingContext12SetBlendFuncEjj
002fc4c5 T _ZN5Caver16RenderingContext12WhiteTextureEv
002fc17d T _ZN5Caver16RenderingContext13SetClearColorERKNS_5ColorE
002fc1d1 T _ZN5Caver16RenderingContext13SetClearDepthEf
002fc025 T _ZN5Caver16RenderingContext14CurrentContextEv
002fca8b T _ZN5Caver16RenderingContext17PrepareForDrawingEv
002fc031 T _ZN5Caver16RenderingContext17SetCurrentContextEPS0_
002fc261 T _ZN5Caver16RenderingContext17SetIdentityMatrixEv
002fc5c9 T _ZN5Caver16RenderingContext18SetBlendingEnabledEb
002fc62d T _ZN5Caver16RenderingContext18SetCullFaceEnabledEb
002fc609 T _ZN5Caver16RenderingContext18SetLightingEnabledEb
002fca85 T _ZN5Caver16RenderingContext18SetUniformVariableEiRKNS_7Matrix4E
002fc5a3 T _ZN5Caver16RenderingContext19SetDefaultBlendFuncEv
002fc649 T _ZN5Caver16RenderingContext19SetDepthTestEnabledEb
002fc1ed T _ZN5Caver16RenderingContext19SetProjectionMatrixERKNS_7Matrix4E
002fc5e5 T _ZN5Caver16RenderingContext19SetTexturingEnabledEb
002fc77d T _ZN5Caver16RenderingContext20ProgramForIdentifierEj
002fc665 T _ZN5Caver16RenderingContext20SetDepthWriteEnabledEb
002fca81 T _ZN5Caver16RenderingContext22SetVertexAttribPointerEjiNS_8DataTypeEiPKv
002fc0e3 T _ZN5Caver16RenderingContext22StartBackgroundLoadingEv
002fc0e7 T _ZN5Caver16RenderingContext23FinishBackgroundLoadingEv
002fc949 T _ZN5Caver16RenderingContext28SetEnabledVertexAttribArraysEjz
002fc8b9 T _ZN5Caver16RenderingContext28SetEnabledVertexAttribArraysEPKji
002fc0f7 T _ZN5Caver16RenderingContext30FramebufferForDrawingToTextureERKN5boost13intrusive_ptrINS_7TextureEEE
002fc9c1 T _ZN5Caver16RenderingContext32SetEnabledVertexAttribArraysImplEPji
002fc1d7 T _ZN5Caver16RenderingContext5ClearEbbb
002fce7d T _ZN5Caver16RenderingContext8DrawRectERKNS_9RectangleERKNS_5ColorEf
002fcd65 T _ZN5Caver16RenderingContext8FillRectERKNS_9RectangleEPKNS_5ColorEf
002fcc8d T _ZN5Caver16RenderingContext8FillRectERKNS_9RectangleERKNS_5ColorEf
002fc335 T _ZN5Caver16RenderingContext8SetAlphaEf
002fc2fd T _ZN5Caver16RenderingContext8SetColorERKNS_5ColorE
002fc22f T _ZN5Caver16RenderingContext9SetMatrixERKNS_7Matrix4E
002fc03d T _ZN5Caver16RenderingContextC1ENS_12RenderingAPIE
002fc03d T _ZN5Caver16RenderingContextC2ENS_12RenderingAPIE
002fd1e5 T _ZN5Caver16RenderingProgram15LinkWithShadersERKN5boost10shared_ptrINS_22RenderingProgramShaderEEES6_
002fd191 T _ZN5Caver16RenderingProgram18AddVertexAttributeEjRKSs
002fd1e9 T _ZN5Caver16RenderingProgram18HasUniformVariableEi
002fd1fb T _ZN5Caver16RenderingProgram25LocationOfUniformVariableEi
002fd10d T _ZN5Caver16RenderingProgramC1EPNS_16RenderingContextERKSs
002fd10d T _ZN5Caver16RenderingProgramC2EPNS_16RenderingContextERKSs
002fd143 T _ZN5Caver16RenderingProgramD1Ev
002fd143 T _ZN5Caver16RenderingProgramD2Ev
002d26b5 T _ZN5Caver16SceneLoadingView14LayoutSubviewsEv
002d23f9 T _ZN5Caver16SceneLoadingView17InitWithGameStateERKN5boost10shared_ptrINS_9GameStateEEERKNS2_INS_7MapNodeEEE
002d2875 T _ZN5Caver16SceneLoadingView6UpdateEf
002d2a65 T _ZN5Caver16SceneLoadingView8DrawRectEPNS_16RenderingContextERKNS_9RectangleERKNS_7Matrix4E
002d2a95 T _ZN5Caver16SceneLoadingView9AnimateInEv
002d2145 T _ZN5Caver16SceneLoadingViewC1Ev
002d2145 T _ZN5Caver16SceneLoadingViewC2Ev
002f22a1 T _ZN5Caver16SceneObjectGroup10FinishLoadEv
002f2311 T _ZN5Caver16SceneObjectGroup11GetBindingsEPSt6vectorINS_7BindingESaIS2_EE
002f2805 T _ZN5Caver16SceneObjectGroup12RemoveObjectEPNS_11SceneObjectE
002f26f1 T _ZN5Caver16SceneObjectGroup13SetIdentifierERKSs
002f20b1 T _ZN5Caver16SceneObjectGroup16RemoveAllObjectsEv
002f277f T _ZN5Caver16SceneObjectGroup19PerformBindedActionEi
002f28c9 T _ZN5Caver16SceneObjectGroup19RemoveObjectAtIndexEi
002f2505 T _ZN5Caver16SceneObjectGroup22ValueForBindedPropertyEi
002f20fd T _ZN5Caver16SceneObjectGroup23LoadFromProtobufMessageERKNS_5Proto16SceneObjectGroupE
002f2615 T _ZN5Caver16SceneObjectGroup25SetValueForBindedPropertyEiRKNS_12BindingValueE
002f2501 T _ZN5Caver16SceneObjectGroup30GetEnumValuesForBindedPropertyEiPSt6vectorINS_12BindingValueESaIS2_EE
002f28fb T _ZN5Caver16SceneObjectGroup8SetSceneEPNS_5SceneE
002f2785 T _ZN5Caver16SceneObjectGroup9AddObjectEPNS_11SceneObjectE
002f2005 T _ZN5Caver16SceneObjectGroupC1Ev
002f2005 T _ZN5Caver16SceneObjectGroupC2Ev
002f20d9 T _ZN5Caver16SceneObjectGroupD0Ev
002f2049 T _ZN5Caver16SceneObjectGroupD1Ev
002f2049 T _ZN5Caver16SceneObjectGroupD2Ev
002f5d1d T _ZN5Caver16SetResourcesPathERKSs
00313cc1 T _ZN5Caver16SHA1HashForBytesEPKhj
0021d565 T _ZN5Caver16ShatterComponent11GetBindingsEPSt6vectorINS_7BindingESaIS2_EE
0021d5a1 T _ZN5Caver16ShatterComponent12ShatterModelEPNS_14ModelComponentEb
0021d551 T _ZN5Caver16ShatterComponent17InitWithComponentEPKS0_
0021d599 T _ZN5Caver16ShatterComponent19PerformBindedActionEi
0021d579 T _ZN5Caver16ShatterComponent22ValueForBindedPropertyEi
0021d55d T _ZN5Caver16ShatterComponent23LoadFromProtobufMessageERKNS_5Proto9ComponentE
0021d58f T _ZN5Caver16ShatterComponent25SetValueForBindedPropertyEiRKNS_12BindingValueE
0021d56f T _ZN5Caver16ShatterComponent30GetEnumValuesForBindedPropertyEiPSt6vectorINS_12BindingValueESaIS2_EE
0021d8d5 T _ZN5Caver16ShatterComponent6UpdateEf
0021d501 T _ZN5Caver16ShatterComponentC1Ev
0021d501 T _ZN5Caver16ShatterComponentC2Ev
002ded0d T _ZN5Caver16SkeletonInstance16EvaluateMatricesEv
002debad T _ZN5Caver16SkeletonInstance16InitWithSkeletonERKN5boost10shared_ptrIKNS_8SkeletonEEE
002dec97 T _ZN5Caver16SkeletonInstance21ExtractDataFromBufferEPKNS_15FloatDataBufferE
002b7021 T _ZN5Caver16StoreProductView14LayoutSubviewsEv
002b6f91 T _ZN5Caver16StoreProductView19SetBuyButtonEnabledEb
002b6a21 T _ZN5Caver16StoreProductViewC1Ev
002b6a21 T _ZN5Caver16StoreProductViewC2Ev
001dddf1 T _ZN5Caver16StringForTriggerENS_16ProgramComponent7TriggerE
00312de1 T _ZN5Caver16UniqueIdentifierEv
002f4cb1 T _ZN5Caver17AndroidEnteredAgeEi
002f4c19 T _ZN5Caver17AndroidIsAgeKnownEv
00320fd9 T _ZN5Caver17CopyToFileBuffer8EPhPKhi
00312dd5 T _ZN5Caver17CurrentDeviceTypeEv
001e7e71 T _ZN5Caver17DefaultComponents11RegisterAllEv
00226f85 T _ZN5Caver17DestroyVertexListEPNS_11VertexList_E
002be001 T _ZN5Caver17DraggableMenuItem12InitWithItemERKN5boost10shared_ptrINS_4ItemEEE
002be16d T _ZN5Caver17DraggableMenuItem8DrawRectEPNS_16RenderingContextERKNS_9RectangleERKNS_7Matrix4E
002bdf89 T _ZN5Caver17DraggableMenuItemC1Ev
002bdf89 T _ZN5Caver17DraggableMenuItemC2Ev
0030b7ef T _ZN5Caver17GUIAnimatedSprite10SetTextureERKN5boost13intrusive_ptrINS_7TextureEEE
0030b9e9 T _ZN5Caver17GUIAnimatedSprite12AddAnimationERKN5boost10shared_ptrINS_12GUIAnimationEEE
0030b9f3 T _ZN5Caver17GUIAnimatedSprite19RemoveAllAnimationsEv
0030b829 T _ZN5Caver17GUIAnimatedSprite6UpdateEf
0030b801 T _ZN5Caver17GUIAnimatedSprite8SetFrameERKNS_9RectangleE
0030b7c1 T _ZN5Caver17GUIAnimatedSpriteC1Ev
0030b7c1 T _ZN5Caver17GUIAnimatedSpriteC2Ev
0030a1cd T _ZN5Caver17GUIAnimationCurve11ValueAtTimeEf
0030a1ad T _ZN5Caver17GUIAnimationCurveC1ERKNS_7Vector2ES3_
0030a1ad T _ZN5Caver17GUIAnimationCurveC2ERKNS_7Vector2ES3_
002bfdc9 T _ZN5Caver17GuidePurchaseView10AnimateOutEv
002bf4e9 T _ZN5Caver17GuidePurchaseView13ButtonPressedEPvPNS_8GUIEventE
002bf531 T _ZN5Caver17GuidePurchaseView14LayoutSubviewsEv
002bf8fd T _ZN5Caver17GuidePurchaseView19UpdateBuyButtonSizeEv
002c021d T _ZN5Caver17GuidePurchaseView8DrawRectEPNS_16RenderingContextERKNS_9RectangleERKNS_7Matrix4E
002bf9c9 T _ZN5Caver17GuidePurchaseView9AnimateInEv
002be849 T _ZN5Caver17GuidePurchaseViewC1Ev
002be849 T _ZN5Caver17GuidePurchaseViewC2Ev
003075db T _ZN5Caver17GUIViewController17ViewWillDisappearEv
003075e7 T _ZN5Caver17GUIViewController26DismissModalViewControllerEv
003076d1 T _ZN5Caver17GUIViewController26PresentModalViewControllerERKN5boost10shared_ptrIS0_EE
00307695 T _ZN5Caver17GUIViewController6UpdateEf
00307531 T _ZN5Caver17GUIViewControllerC1Ev
00307531 T _ZN5Caver17GUIViewControllerC2Ev
003075b9 T _ZN5Caver17GUIViewControllerD0Ev
00307551 T _ZN5Caver17GUIViewControllerD1Ev
00307551 T _ZN5Caver17GUIViewControllerD2Ev
00200089 T _ZN5Caver17ItemDropComponent11GetBindingsEPSt6vectorINS_7BindingESaIS2_EE
0020081d T _ZN5Caver17ItemDropComponent14RandomFromOddsEiPf
00201179 T _ZN5Caver17ItemDropComponent15DropItemObjectsERKSt6vectorIN5boost13intrusive_ptrINS_11SceneObjectEEESaIS5_EE
002008f9 T _ZN5Caver17ItemDropComponent15IsItemCollectedERKSs
002007ad T _ZN5Caver17ItemDropComponent15RegisterLibraryEv
00200889 T _ZN5Caver17ItemDropComponent16RandomSingleItemEiPNS0_13ItemDropEntryE
0020091d T _ZN5Caver17ItemDropComponent17AllItemsCollectedEv
0020097d T _ZN5Caver17ItemDropComponent17CreateItemObjectsEv
001ffc05 T _ZN5Caver17ItemDropComponent17InitWithComponentEPKS0_
002006dd T _ZN5Caver17ItemDropComponent19PerformBindedActionEi
00200501 T _ZN5Caver17ItemDropComponent22ValueForBindedPropertyEi
001ffccd T _ZN5Caver17ItemDropComponent23LoadFromProtobufMessageERKNS_5Proto9ComponentE
002005ad T _ZN5Caver17ItemDropComponent25SetValueForBindedPropertyEiRKNS_12BindingValueE
002004f7 T _ZN5Caver17ItemDropComponent30GetEnumValuesForBindedPropertyEiPSt6vectorINS_12BindingValueESaIS2_EE
002007a7 T _ZN5Caver17ItemDropComponent7PrepareEv
0020095b T _ZN5Caver17ItemDropComponent7TriggerEv
001ffad9 T _ZN5Caver17ItemDropComponentC1Ev
001ffad9 T _ZN5Caver17ItemDropComponentC2Ev
002c5c5d T _ZN5Caver17ItemInfoPopupView12InitWithItemERKN5boost10shared_ptrINS_4ItemEEE
002c5d59 T _ZN5Caver17ItemInfoPopupView13InitWithSkillERKN5boost10shared_ptrINS_5SkillEEE
002c5885 T _ZN5Caver17ItemInfoPopupView14LayoutSubviewsEv
002c5889 T _ZN5Caver17ItemInfoPopupView4InitERKN5boost13intrusive_ptrINS_7TextureEEERKSsS8_
002c5e89 T _ZN5Caver17ItemInfoPopupView6UpdateEf
002c5e8d T _ZN5Caver17ItemInfoPopupView8DrawRectEPNS_16RenderingContextERKNS_9RectangleERKNS_7Matrix4E
002c585d T _ZN5Caver17ItemInfoPopupViewC1Ev
002c585d T _ZN5Caver17ItemInfoPopupViewC2Ev
00313ae1 T _ZN5Caver17LastPathComponentERKSs
002b2a75 T _ZN5Caver17OverlayMenuButton10SetMenuTabERKSs
002b2b25 T _ZN5Caver17OverlayMenuButton12SetSparklingEb
002b3139 T _ZN5Caver17OverlayMenuButton23FadeInAnimationFinishedEPvPNS_8GUIEventE
002b2e6d T _ZN5Caver17OverlayMenuButton24FadeOutAnimationFinishedEPvPNS_8GUIEventE
002b2dad T _ZN5Caver17OverlayMenuButton6UpdateEf
002b2dcd T _ZN5Caver17OverlayMenuButton8DrawRectEPNS_16RenderingContextERKNS_9RectangleERKNS_7Matrix4E
002b2995 T _ZN5Caver17OverlayMenuButtonC1Ev
002b2995 T _ZN5Caver17OverlayMenuButtonC2Ev
00218f3d T _ZN5Caver17ParticleComponent11GetBindingsEPSt6vectorINS_7BindingESaIS2_EE
00218efd T _ZN5Caver17ParticleComponent16UpdateDimensionsEv
00218d51 T _ZN5Caver17ParticleComponent17InitWithComponentEPKS0_
0021925f T _ZN5Caver17ParticleComponent19PerformBindedActionEi
0021903d T _ZN5Caver17ParticleComponent22ValueForBindedPropertyEi
00219265 T _ZN5Caver17ParticleComponent23AddTypeToParticleSystemEPNS_14ParticleSystemE
00218d7d T _ZN5Caver17ParticleComponent23LoadFromProtobufMessageERKNS_5Proto9ComponentE
00219069 T _ZN5Caver17ParticleComponent25SetValueForBindedPropertyEiRKNS_12BindingValueE
00219033 T _ZN5Caver17ParticleComponent30GetEnumValuesForBindedPropertyEiPSt6vectorINS_12BindingValueESaIS2_EE
00218e31 T _ZN5Caver17ParticleComponent7PrepareEv
00219215 T _ZN5Caver17ParticleComponent7SetSizeEf
00218ce5 T _ZN5Caver17ParticleComponentC1Ev
00218ce5 T _ZN5Caver17ParticleComponentC2Ev
002e886d T _ZN5Caver17PointLightManager15DrawDebugShapesEPNS_16RenderingContextE
002e8161 T _ZN5Caver17PointLightManager18GetOptimizedLightsERKNS_9RectangleEPNS_10PointLightEi
002e80f5 T _ZN5Caver17PointLightManager8AddLightERKNS_10PointLightE
002e80e5 T _ZN5Caver17PointLightManagerC1Ev
002e80e5 T _ZN5Caver17PointLightManagerC2Ev
002f5dd5 T _ZN5Caver17SHA1HashForStringERKSs
002f91fd T _ZN5Caver17SoundEffectSource10setLoopingEb
002f8dcd T _ZN5Caver17SoundEffectSource11setPositionERKNS_7Vector3E
002f8ad1 T _ZN5Caver17SoundEffectSource13EnqueueSourceERKN5boost13intrusive_ptrIS0_EE
002f8945 T _ZN5Caver17SoundEffectSource14InitWithEffectERKN5boost13intrusive_ptrINS_11SoundEffectEEE
002f8b4d T _ZN5Caver17SoundEffectSource16ClearSourceCacheEv
002f8cd9 T _ZN5Caver17SoundEffectSource16setRolloffFactorEf
002f8a71 T _ZN5Caver17SoundEffectSource20SetDefaultParametersEv
002f8c6d T _ZN5Caver17SoundEffectSource20setReferenceDistanceEf
002f8861 T _ZN5Caver17SoundEffectSource22DequeueSourceForEffectERKN5boost13intrusive_ptrINS_11SoundEffectEEE
002f8ef9 T _ZN5Caver17SoundEffectSource4PlayEv
002f8fc1 T _ZN5Caver17SoundEffectSource4StopEv
002f8f5d T _ZN5Caver17SoundEffectSource5PauseEv
002f89d1 T _ZN5Caver17SoundEffectSource5ResetEv
002f902d T _ZN5Caver17SoundEffectSource6RewindEv
002f8e45 T _ZN5Caver17SoundEffectSource6UpdateEf
002f8d45 T _ZN5Caver17SoundEffectSource7setGainEf
002f89dd T _ZN5Caver17SoundEffectSource9SetEffectERKN5boost13intrusive_ptrINS_11SoundEffectEEE
002f8b65 T _ZN5Caver17SoundEffectSourceC1Ev
002f8b65 T _ZN5Caver17SoundEffectSourceC2Ev
002f8c49 T _ZN5Caver17SoundEffectSourceD0Ev
002f8b9d T _ZN5Caver17SoundEffectSourceD1Ev
002f8b9d T _ZN5Caver17SoundEffectSourceD2Ev
00227151 T _ZN5Caver17TestTriangulationEv
002fd6fd T _ZN5Caver17VertexArrayObject10BindArraysEPNS_16RenderingContextE
002fd7a5 T _ZN5Caver17VertexArrayObject12UnbindArraysEPNS_16RenderingContextE
002fd3e5 T _ZN5Caver17VertexArrayObject17CreateIndexBufferENS_8DataTypeEi
002fd4db T _ZN5Caver17VertexArrayObject17SwapBufferObjectsEv
002fd3c9 T _ZN5Caver17VertexArrayObject18CreateVertexBufferEi
002fd40b T _ZN5Caver17VertexArrayObject19CreateBufferObjectsEb
002fd699 T _ZN5Caver17VertexArrayObject22SetVertexAttribPointerEPNS_16RenderingContextEjiNS_8DataTypeEiPKv
002fd543 T _ZN5Caver17VertexArrayObject23DeleteClientSideBuffersEv
002fd685 T _ZN5Caver17VertexArrayObject27SetVertexAttribArrayEnabledEPNS_16RenderingContextEjb
002fd4f1 T _ZN5Caver17VertexArrayObject28UpdateVertexBufferObjectDataEv
002fd4f9 T _ZN5Caver17VertexArrayObject31UpdateVertexBufferObjectSubDataEii
002fd7d9 T _ZN5Caver17VertexArrayObject4DrawEPNS_16RenderingContextEiii
002fd337 T _ZN5Caver17VertexArrayObject5ResetEv
002fd591 T _ZN5Caver17VertexArrayObject8AddArrayEjiNS_8DataTypeEii
002fd56f T _ZN5Caver17VertexArrayObject8AddArrayEjiNS_8DataTypeEiPv
002fd305 T _ZN5Caver17VertexArrayObjectC1Ev
002fd305 T _ZN5Caver17VertexArrayObjectC2Ev
002fd329 T _ZN5Caver17VertexArrayObjectD1Ev
002fd329 T _ZN5Caver17VertexArrayObjectD2Ev
002a9915 T _ZN5Caver18ConsumableItemView17InitWithGameStateERKN5boost10shared_ptrINS_9GameStateEEE
002a99d1 T _ZN5Caver18ConsumableItemView7SetItemERKN5boost10shared_ptrINS_4ItemEEE
002a949d T _ZN5Caver18ConsumableItemViewC1Ev
002a949d T _ZN5Caver18ConsumableItemViewC2Ev
00321059 T _ZN5Caver18ConversionRequiredEv
00320fdd T _ZN5Caver18CopyToFileBuffer16EPhPKhi
00320ff9 T _ZN5Caver18CopyToFileBuffer32EPhPKhi
002f6585 T _ZN5Caver18FWShellPreferences3GetENS_21FWShellFloatPrefsEnumE
002f6571 T _ZN5Caver18FWShellPreferences3SetENS_19FWShellIntPrefsEnumEi
002f657d T _ZN5Caver18FWShellPreferences3SetENS_21FWShellFloatPrefsEnumEf
002f6561 T _ZN5Caver18FWShellPreferencesC1Ev
002f6561 T _ZN5Caver18FWShellPreferencesC2Ev
0027d659 T _ZN5Caver18GameViewController10ResumeViewEv
0027d6d1 T _ZN5Caver18GameViewController10UnloadViewEv
0027d8cd T _ZN5Caver18GameViewController11GotoCreditsEv
0027d4bd T _ZN5Caver18GameViewController11SuspendViewEv
0027bd89 T _ZN5Caver18GameViewController13LoadGameStateEv
0027c1a5 T _ZN5Caver18GameViewController13SaveGameStateEb
0027d295 T _ZN5Caver18GameViewController13ViewDidAppearEv
0027c3ad T _ZN5Caver18GameViewController14BackgroundLoadEv
0027e3b5 T _ZN5Caver18GameViewController15HandleGameEventERKNS_9GameEventE
0027ee79 T _ZN5Caver18GameViewController17RemoveGuideTargetEv
0027ca35 T _ZN5Caver18GameViewController17UpdateGuideTargetEb
0027ef21 T _ZN5Caver18GameViewController18AddItemToCharacterERKN5boost10shared_ptrINS_4ItemEEE
0027f301 T _ZN5Caver18GameViewController19AddSkillToCharacterERKN5boost10shared_ptrINS_5SkillEEE
0027ebed T _ZN5Caver18GameViewController19GameControlButtonUpENS_17GameControlButtonE
0027c7ed T _ZN5Caver18GameViewController20RegisterSceneLibraryEPNS_5SceneE
0027d20d T _ZN5Caver18GameViewController21CheckRevokedPurchasesEv
0027ea91 T _ZN5Caver18GameViewController21GameControlButtonDownENS_17GameControlButtonE
0027ece1 T _ZN5Caver18GameViewController23RemoveItemFromCharacterERKN5boost10shared_ptrINS_4ItemEEE
0027ee3b T _ZN5Caver18GameViewController25ScheduleGuideTargetUpdateEv
0027c975 T _ZN5Caver18GameViewController26CheckAndEnableNewPurchasesEv
0027d899 T _ZN5Caver18GameViewController26TransitionToViewControllerERKN5boost10shared_ptrINS_17GUIViewControllerEEEffb
0027ee57 T _ZN5Caver18GameViewController28RemoveGuideTargetIfCompletedEv
0027e9b1 T _ZN5Caver18GameViewController28StoreViewControllerDismissedEPNS_19StoreViewControllerE
0027e711 T _ZN5Caver18GameViewController29HandleDidEnterPortalGameEventERKNS_23DidEnterPortalGameEventE
0027db7b T _ZN5Caver18GameViewController30LevelUpViewControllerDidFinishEPNS_21LevelUpViewControllerE
0027db15 T _ZN5Caver18GameViewController31GameMenuViewControllerDismissedEPNS_22GameMenuViewControllerE
0027dbd5 T _ZN5Caver18GameViewController32PortalViewControllerDidGotoLevelEPNS_20PortalViewControllerERKSs
0027d6ed T _ZN5Caver18GameViewController32ProfileManagerDidDownloadProfileEPNS_14ProfileManagerERKSs
0027d9d9 T _ZN5Caver18GameViewController35GameMenuViewControllerDidQuitToMenuEPNS_22GameMenuViewControllerE
0027ea4b T _ZN5Caver18GameViewController37StoreViewControllerDidPurchaseProductEPNS_19StoreViewControllerERKSs
0027dcd7 T _ZN5Caver18GameViewController38PortalViewControllerDidSetGuideEnabledEPNS_20PortalViewControllerEb
0027dc95 T _ZN5Caver18GameViewController40GameMenuViewControllerDidSetGuideEnabledEPNS_22GameMenuViewControllerEb
0027dcbb T _ZN5Caver18GameViewController46GameMenuViewControllerDidSetCoinDoublerEnabledEPNS_22GameMenuViewControllerEb
0027dcfd T _ZN5Caver18GameViewController6UpdateEf
0027c239 T _ZN5Caver18GameViewController8LoadViewEv
0027d7a9 T _ZN5Caver18GameViewController8ShowMenuEv
0027e105 T _ZN5Caver18GameViewController9GotoLevelERKSsS2_
0027c3a9 T _ZN5Caver18GameViewController9ResetViewEv
0027bb71 T _ZN5Caver18GameViewControllerC1Ev
0027bb71 T _ZN5Caver18GameViewControllerC2Ev
0027bd65 T _ZN5Caver18GameViewControllerD0Ev
0027bbe9 T _ZN5Caver18GameViewControllerD1Ev
0027bbe9 T _ZN5Caver18GameViewControllerD2Ev
002c1aa9 T _ZN5Caver18InventoryItemPanel10SetTrinketERKN5boost10shared_ptrINS_4ItemEEE
002c0ec9 T _ZN5Caver18InventoryItemPanel12UpdateLabelsEv
002c18a5 T _ZN5Caver18InventoryItemPanel14LayoutSubviewsEv
002c1f01 T _ZN5Caver18InventoryItemPanel24AddToggleLabelsAnimationEv
002c1b8d T _ZN5Caver18InventoryItemPanel25DraggableItemDidEnterViewEPNS_16GUIDraggableItemE
002c1c51 T _ZN5Caver18InventoryItemPanel25DraggableItemDidLeaveViewEPNS_16GUIDraggableItemE
002c1ca9 T _ZN5Caver18InventoryItemPanel28DraggableItemDidDropIntoViewEPNS_16GUIDraggableItemE
002c24ad T _ZN5Caver18InventoryItemPanel35ToggleLabelsFadeInAnimationFinishedEPvPNS_8GUIEventE
002c1e71 T _ZN5Caver18InventoryItemPanel36InventoryTrinketSlotDidBeginDraggingEPNS_20InventoryTrinketSlotE
002c21c9 T _ZN5Caver18InventoryItemPanel36ToggleLabelsFadeOutAnimationFinishedEPvPNS_8GUIEventE
002c08e9 T _ZN5Caver18InventoryItemPanel4InitERKN5boost10shared_ptrINS_9GameStateEEE
002c18a7 T _ZN5Caver18InventoryItemPanel6UpdateEf
002c1afd T _ZN5Caver18InventoryItemPanel7HitTestERKNS_7Vector2E
002c18ed T _ZN5Caver18InventoryItemPanel7SetItemERKN5boost10shared_ptrINS_4ItemEEE
002c18ab T _ZN5Caver18InventoryItemPanel8DrawRectEPNS_16RenderingContextERKNS_9RectangleERKNS_7Matrix4E
002c19c9 T _ZN5Caver18InventoryItemPanel8SetSkillERKN5boost10shared_ptrINS_5SkillEEE
002c08b9 T _ZN5Caver18InventoryItemPanelC1Ev
002c08b9 T _ZN5Caver18InventoryItemPanelC2Ev
002fb07d T _ZN5Caver18LoadContentsOfFileERKSsPSs
00206d25 T _ZN5Caver18MagicBoltComponent11GetBindingsEPSt6vectorINS_7BindingESaIS2_EE
002077a1 T _ZN5Caver18MagicBoltComponent13HandleMessageEiPv
00206b35 T _ZN5Caver18MagicBoltComponent17InitWithComponentEPKS0_
00206ed7 T _ZN5Caver18MagicBoltComponent19PerformBindedActionEi
00206e29 T _ZN5Caver18MagicBoltComponent22ValueForBindedPropertyEi
00206b75 T _ZN5Caver18MagicBoltComponent23LoadFromProtobufMessageERKNS_5Proto9ComponentE
00206e59 T _ZN5Caver18MagicBoltComponent25SetValueForBindedPropertyEiRKNS_12BindingValueE
00206e1f T _ZN5Caver18MagicBoltComponent30GetEnumValuesForBindedPropertyEiPSt6vectorINS_12BindingValueESaIS2_EE
00206f71 T _ZN5Caver18MagicBoltComponent4CastEv
00207139 T _ZN5Caver18MagicBoltComponent6UpdateEf
00206fa1 T _ZN5Caver18MagicBoltComponent7ExplodeEb
00206ee1 T _ZN5Caver18MagicBoltComponent7PrepareEv
00206905 T _ZN5Caver18MagicBoltComponentC1Ev
00206905 T _ZN5Caver18MagicBoltComponentC2Ev
00207c45 T _ZN5Caver18MagicBombComponent11GetBindingsEPSt6vectorINS_7BindingESaIS2_EE
00207b45 T _ZN5Caver18MagicBombComponent17InitWithComponentEPKS0_
00207d83 T _ZN5Caver18MagicBombComponent19PerformBindedActionEi
00207ced T _ZN5Caver18MagicBombComponent22ValueForBindedPropertyEi
00207b61 T _ZN5Caver18MagicBombComponent23LoadFromProtobufMessageERKNS_5Proto9ComponentE
00207d11 T _ZN5Caver18MagicBombComponent25SetValueForBindedPropertyEiRKNS_12BindingValueE
00207ce3 T _ZN5Caver18MagicBombComponent30GetEnumValuesForBindedPropertyEiPSt6vectorINS_12BindingValueESaIS2_EE
00207e09 T _ZN5Caver18MagicBombComponent4CastEv
00208095 T _ZN5Caver18MagicBombComponent6UpdateEf
00207e9d T _ZN5Caver18MagicBombComponent7ExplodeEv
00207d8d T _ZN5Caver18MagicBombComponent7PrepareEv
00207b01 T _ZN5Caver18MagicBombComponentC1Ev
00207b01 T _ZN5Caver18MagicBombComponentC2Ev
00321511 T _ZN5Caver18NewAudioPlayerImplEv
00204499 T _ZN5Caver18PhysicsObjectState11setPositionERKNS_7Vector2E
002044bd T _ZN5Caver18PhysicsObjectState11setRotationEf
002044ab T _ZN5Caver18PhysicsObjectState11setVelocityERKNS_7Vector2E
00204507 T _ZN5Caver18PhysicsObjectState16setRotationSpeedEf
00204791 T _ZN5Caver18PhysicsObjectState17UpdateObjectStateEf
00204a51 T _ZN5Caver18PhysicsObjectState21HandleGroundCollisionERKNS_20CollisionMessageDataE
00204525 T _ZN5Caver18PhysicsObjectState21UpdateSpeedComponentsEf
00204985 T _ZN5Caver18PhysicsObjectState27AdjustGroundCollisionVectorEPNS_7Vector2EPf
0020450d T _ZN5Caver18PhysicsObjectState6UpdateEf
00204405 T _ZN5Caver18PhysicsObjectStateC1Ev
00204405 T _ZN5Caver18PhysicsObjectStateC2Ev
00204471 T _ZN5Caver18PhysicsObjectStateD1Ev
00204471 T _ZN5Caver18PhysicsObjectStateD2Ev
0029a341 T _ZN5Caver18ProfilesHeaderView14LayoutSubviewsEv
00299f6d T _ZN5Caver18ProfilesHeaderViewC1Ev
00299f6d T _ZN5Caver18ProfilesHeaderViewC2Ev
003133cd T _ZN5Caver18SetAndroidCacheDirERKSs
003133bd T _ZN5Caver18SetAndroidFilesDirERKSs
001e4541 T _ZN5Caver18TouchableComponent10TouchBeganERKNS_7FWTouchE
001e42d9 T _ZN5Caver18TouchableComponent11GetBindingsEPSt6vectorINS_7BindingESaIS2_EE
001e44d1 T _ZN5Caver18TouchableComponent15RegisterLibraryEv
001e41d5 T _ZN5Caver18TouchableComponent17InitWithComponentEPKS0_
001e44c7 T _ZN5Caver18TouchableComponent19PerformBindedActionEi
001e43d9 T _ZN5Caver18TouchableComponent22ValueForBindedPropertyEi
001e4219 T _ZN5Caver18TouchableComponent23LoadFromProtobufMessageERKNS_5Proto9ComponentE
001e4405 T _ZN5Caver18TouchableComponent25SetValueForBindedPropertyEiRKNS_12BindingValueE
001e43cf T _ZN5Caver18TouchableComponent30GetEnumValuesForBindedPropertyEiPSt6vectorINS_12BindingValueESaIS2_EE
001e44cb T _ZN5Caver18TouchableComponent7PrepareEv
001e4545 T _ZN5Caver18TouchableComponent7TriggerEv
001e4165 T _ZN5Caver18TouchableComponentC1Ev
001e4165 T _ZN5Caver18TouchableComponentC2Ev
001e48bd T _ZN5Caver18TransformComponent11GetBindingsEPSt6vectorINS_7BindingESaIS2_EE
001e48f5 T _ZN5Caver18TransformComponent11WorldMatrixEv
001e48a9 T _ZN5Caver18TransformComponent17InitWithComponentEPKS0_
001e48f1 T _ZN5Caver18TransformComponent19PerformBindedActionEi
001e48d1 T _ZN5Caver18TransformComponent22ValueForBindedPropertyEi
001e48b5 T _ZN5Caver18TransformComponent23LoadFromProtobufMessageERKNS_5Proto9ComponentE
001e48e7 T _ZN5Caver18TransformComponent25SetValueForBindedPropertyEiRKNS_12BindingValueE
001e48c7 T _ZN5Caver18TransformComponent30GetEnumValuesForBindedPropertyEiPSt6vectorINS_12BindingValueESaIS2_EE
001e47dd T _ZN5Caver18TransformComponentC1Ev
001e47dd T _ZN5Caver18TransformComponentC2Ev
0022714d T _ZN5Caver18TriangulatePolygonEPKNS_7Vector2EiPt
00227725 T _ZN5Caver18WaterMeshComponent10CreateMeshEv
00227d21 T _ZN5Caver18WaterMeshComponent10UpdateMeshEv
00227561 T _ZN5Caver18WaterMeshComponent11GetBindingsEPSt6vectorINS_7BindingESaIS2_EE
002279f9 T _ZN5Caver18WaterMeshComponent12UpdateBoundsEv
00227375 T _ZN5Caver18WaterMeshComponent17InitWithComponentEPKS0_
002279ef T _ZN5Caver18WaterMeshComponent19PerformBindedActionEi
00227665 T _ZN5Caver18WaterMeshComponent22ValueForBindedPropertyEi
002273bd T _ZN5Caver18WaterMeshComponent23LoadFromProtobufMessageERKNS_5Proto9ComponentE
00227695 T _ZN5Caver18WaterMeshComponent25SetValueForBindedPropertyEiRKNS_12BindingValueE
0022765b T _ZN5Caver18WaterMeshComponent30GetEnumValuesForBindedPropertyEiPSt6vectorINS_12BindingValueESaIS2_EE
00227b25 T _ZN5Caver18WaterMeshComponent4DrawEPNS_16RenderingContextERKNS_9RectangleERKNS_7Matrix4E
00227ae5 T _ZN5Caver18WaterMeshComponent6UpdateEf
002279f3 T _ZN5Caver18WaterMeshComponent7PrepareEv
002271a9 T _ZN5Caver18WaterMeshComponentC1Ev
002271a9 T _ZN5Caver18WaterMeshComponentC2Ev
0028ac85 T _ZN5Caver19AchievementsManager11ReportScoreERKSsxS2_
00288db1 T _ZN5Caver19AchievementsManager13sharedManagerEv
0028af71 T _ZN5Caver19AchievementsManager15SetCounterValueERKSsii
0028b125 T _ZN5Caver19AchievementsManager21ReportAllAchievementsEv
0028acd1 T _ZN5Caver19AchievementsManager22ReportPercentCompletedERKN5boost10shared_ptrINS_11AchievementEEEd
0028ab59 T _ZN5Caver19AchievementsManager23SetAchievementCompletedERKN5boost10shared_ptrINS_11AchievementEEEb
0028ab35 T _ZN5Caver19AchievementsManager24AchievementForIdentifierERKSs
0028ae81 T _ZN5Caver19AchievementsManager25ReportPendingAchievementsEv
0028acad T _ZN5Caver19AchievementsManager30ClearReportedAchievementsCacheEv
0028b0cf T _ZN5Caver19AchievementsManager31ReportAllAchievementsForProfileERKN5boost10shared_ptrINS_13PlayerProfileEEE
0028a9c1 T _ZN5Caver19AchievementsManager6UpdateEf
00288de9 T _ZN5Caver19AchievementsManagerC1Ev
00288de9 T _ZN5Caver19AchievementsManagerC2Ev
002f4785 T _ZN5Caver19AndroidGetStoreNameEv
002f5281 T _ZN5Caver19AndroidLoadSnapshotERKSsd
002f52ed T _ZN5Caver19AndroidSaveSnapshotERKSsS1_S1_xx
002bb47d T _ZN5Caver19AttributePointsView11SetHelpTextERKSs
002bb473 T _ZN5Caver19AttributePointsView12SetMaxPointsEi
002bb459 T _ZN5Caver19AttributePointsView12SetNumPointsEi
002bb575 T _ZN5Caver19AttributePointsView12UpdateSpriteEv
002bacf1 T _ZN5Caver19AttributePointsView13ButtonPressedEPvPNS_8GUIEventE
002baf55 T _ZN5Caver19AttributePointsView14LayoutSubviewsEv
002bb3bd T _ZN5Caver19AttributePointsView16SetInitialPointsEi
002bb343 T _ZN5Caver19AttributePointsView16UpdatePointStateEv
002bb331 T _ZN5Caver19AttributePointsView17SetEditingEnabledEb
002bae01 T _ZN5Caver19AttributePointsView4InitERKSsS2_
002bb4c9 T _ZN5Caver19AttributePointsView6UpdateEf
002bb515 T _ZN5Caver19AttributePointsView8DrawRectEPNS_16RenderingContextERKNS_9RectangleERKNS_7Matrix4E
002ba305 T _ZN5Caver19AttributePointsViewC1Ev
002ba305 T _ZN5Caver19AttributePointsViewC2Ev
001d4865 T _ZN5Caver19BackgroundComponent11GetBindingsEPSt6vectorINS_7BindingESaIS2_EE
001d46c5 T _ZN5Caver19BackgroundComponent17InitWithComponentEPKS0_
001d48fd T _ZN5Caver19BackgroundComponent22ValueForBindedPropertyEi
001d473d T _ZN5Caver19BackgroundComponent23LoadFromProtobufMessageERKNS_5Proto9ComponentE
001d49a1 T _ZN5Caver19BackgroundComponent25SetValueForBindedPropertyEiRKNS_12BindingValueE
001d4a53 T _ZN5Caver19BackgroundComponent7PrepareEv
001d45c1 T _ZN5Caver19BackgroundComponentC1Ev
001d45c1 T _ZN5Caver19BackgroundComponentC2Ev
0031363d T _ZN5Caver19CachesDirectoryPathEv
001e647d T _ZN5Caver19ComponentCollection12AddComponentEPNS_9ComponentE
001e6533 T _ZN5Caver19ComponentCollection13PurgeInactiveEv
001e650d T _ZN5Caver19ComponentCollection5PurgeEv
001e7e31 T _ZN5Caver19ComponentOutletBase7ConnectEPKNS_9ComponentE
00321023 T _ZN5Caver19CopyFromFileBuffer8EPhPKhi
001fbd19 T _ZN5Caver19EntityInfoComponent11GetBindingsEPSt6vectorINS_7BindingESaIS2_EE
001fc049 T _ZN5Caver19EntityInfoComponent13ApplyToObjectEPNS_11SceneObjectE
001fc1c1 T _ZN5Caver19EntityInfoComponent13HandleMessageEiPv
001fbc4d T _ZN5Caver19EntityInfoComponent17InitWithComponentEPKS0_
001fc11d T _ZN5Caver19EntityInfoComponent18ApplyToChildObjectEPNS_11SceneObjectE
001fbe6f T _ZN5Caver19EntityInfoComponent19PerformBindedActionEi
001fbdc5 T _ZN5Caver19EntityInfoComponent22ValueForBindedPropertyEi
001fbc75 T _ZN5Caver19EntityInfoComponent23LoadFromProtobufMessageERKNS_5Proto9ComponentE
001fbde5 T _ZN5Caver19EntityInfoComponent25SetValueForBindedPropertyEiRKNS_12BindingValueE
001fbdbb T _ZN5Caver19EntityInfoComponent30GetEnumValuesForBindedPropertyEiPSt6vectorINS_12BindingValueESaIS2_EE
001fbe75 T _ZN5Caver19EntityInfoComponent7PrepareEv
001fbbe5 T _ZN5Caver19EntityInfoComponentC1Ev
001fbbe5 T _ZN5Caver19EntityInfoComponentC2Ev
00205d15 T _ZN5Caver19FireBreathComponent11GetBindingsEPSt6vectorINS_7BindingESaIS2_EE
00205e63 T _ZN5Caver19FireBreathComponent14StopChannelingEv
00205e61 T _ZN5Caver19FireBreathComponent15StartChannelingEv
00205b7d T _ZN5Caver19FireBreathComponent17InitWithComponentEPKS0_
00205e53 T _ZN5Caver19FireBreathComponent19PerformBindedActionEi
00205dbd T _ZN5Caver19FireBreathComponent22ValueForBindedPropertyEi
00205ba5 T _ZN5Caver19FireBreathComponent23LoadFromProtobufMessageERKNS_5Proto9ComponentE
00205de1 T _ZN5Caver19FireBreathComponent25SetValueForBindedPropertyEiRKNS_12BindingValueE
00205db3 T _ZN5Caver19FireBreathComponent30GetEnumValuesForBindedPropertyEiPSt6vectorINS_12BindingValueESaIS2_EE
00205e71 T _ZN5Caver19FireBreathComponent6UpdateEf
00205e5d T _ZN5Caver19FireBreathComponent7PrepareEv
002059cd T _ZN5Caver19FireBreathComponentC1Ev
002059cd T _ZN5Caver19FireBreathComponentC2Ev
00278e15 T _ZN5Caver19GameSceneController10HandleFallEv
00278e25 T _ZN5Caver19GameSceneController11ConsumeItemERKN5boost10shared_ptrINS_4ItemEEE
002780a9 T _ZN5Caver19GameSceneController11SpawnHeroAtERKSs
00278f17 T _ZN5Caver19GameSceneController12ApplyLevelUpEiii
00279821 T _ZN5Caver19GameSceneController12BeginCastingERKN5boost10shared_ptrINS_5SkillEEE
00279e71 T _ZN5Caver19GameSceneController12CanCastSkillERKN5boost10shared_ptrINS_5SkillEEE
00278ea5 T _ZN5Caver19GameSceneController12UnequipArmorEv
00278d8d T _ZN5Caver19GameSceneController12UpdateTargetEv
00277f35 T _ZN5Caver19GameSceneController13InitWithSceneERKN5boost10shared_ptrINS_5SceneEEE
00278fad T _ZN5Caver19GameSceneController15HandleGameEventERKNS_9GameEventE
00279dc1 T _ZN5Caver19GameSceneController16ManaCostForSkillERKN5boost10shared_ptrINS_5SkillEEE
00279ead T _ZN5Caver19GameSceneController16RegisterTreasureERKN5boost13intrusive_ptrINS_11SceneObjectEEE
0027825d T _ZN5Caver19GameSceneController18CreateHeroObjectAtERKNS_7Vector3Eib
00279d99 T _ZN5Caver19GameSceneController19GameControlButtonUpENS_17GameControlButtonE
002784d5 T _ZN5Caver19GameSceneController20AddHeroObjectToSceneEv
0027956d T _ZN5Caver19GameSceneController21GameControlButtonDownENS_17GameControlButtonE
00278efd T _ZN5Caver19GameSceneController22ApplyTrinketToItemTypeENS_8ItemTypeERKN5boost10shared_ptrINS_4ItemEEE
00279ebd T _ZN5Caver19GameSceneController26RegisterTreasureCollectionERKN5boost13intrusive_ptrINS_11SceneObjectEEE
00278739 T _ZN5Caver19GameSceneController6UpdateEf
002785ed T _ZN5Caver19GameSceneController9EquipItemERKN5boost10shared_ptrINS_4ItemEEE
00277e35 T _ZN5Caver19GameSceneControllerC1Ev
00277e35 T _ZN5Caver19GameSceneControllerC2Ev
00221ea9 T _ZN5Caver19GroundMeshComponent11GetBindingsEPSt6vectorINS_7BindingESaIS2_EE
002218bd T _ZN5Caver19GroundMeshComponent12AddFrontMeshERKN5boost10shared_ptrINS_4MeshEEE
002220ab T _ZN5Caver19GroundMeshComponent12GetAllMeshesEPSt6vectorIN5boost10shared_ptrINS_12MeshInstanceEEESaIS5_EE
00221859 T _ZN5Caver19GroundMeshComponent14AddSurfaceMeshERKN5boost10shared_ptrINS_4MeshEEE
00221e33 T _ZN5Caver19GroundMeshComponent15RemoveAllMeshesEv
00221545 T _ZN5Caver19GroundMeshComponent17InitWithComponentEPKS0_
00222057 T _ZN5Caver19GroundMeshComponent19PerformBindedActionEi
00221fa9 T _ZN5Caver19GroundMeshComponent22ValueForBindedPropertyEi
00221631 T _ZN5Caver19GroundMeshComponent23LoadFromProtobufMessageERKNS_5Proto9ComponentE
00221fd9 T _ZN5Caver19GroundMeshComponent25SetValueForBindedPropertyEiRKNS_12BindingValueE
00221f9f T _ZN5Caver19GroundMeshComponent30GetEnumValuesForBindedPropertyEiPSt6vectorINS_12BindingValueESaIS2_EE
00221a91 T _ZN5Caver19GroundMeshComponent7ProcessEPSt6vectorIN5boost13intrusive_ptrINS_9ComponentEEESaIS5_EE
00221489 T _ZN5Caver19GroundMeshComponentC1Ev
00221489 T _ZN5Caver19GroundMeshComponentC2Ev
0022160d T _ZN5Caver19GroundMeshComponentD0Ev
002215b5 T _ZN5Caver19GroundMeshComponentD1Ev
002215b5 T _ZN5Caver19GroundMeshComponentD2Ev
00222935 T _ZN5Caver19GroundMeshGenerator17GenerateFrontMeshEiPKNS_7Vector2EPKfPKNS_14TextureMappingE
002241c9 T _ZN5Caver19GroundMeshGenerator17GenerateFrontMeshEv
00222c01 T _ZN5Caver19GroundMeshGenerator19GenerateSurfaceMeshEiPKNS_7Vector2EPKfS5_PKNS_14TextureMappingE
002234f9 T _ZN5Caver19GroundMeshGenerator20InsertCapForRoundHatEbRKNS_7Vector2EffRKNS_7Vector3ES6_f
00222f05 T _ZN5Caver19GroundMeshGenerator21InitializeMeshBuilderEb
00223279 T _ZN5Caver19GroundMeshGenerator22InsertRoundHatVerticesERKNS_7Vector2EffRKNS_7Vector3ES6_f
00223151 T _ZN5Caver19GroundMeshGenerator26InsertPlainSurfaceVerticesERKNS_7Vector2EffS1_f
00223945 T _ZN5Caver19GroundMeshGenerator31GeneratePlainSurfaceWithHatGapsEf
00223cb1 T _ZN5Caver19GroundMeshGenerator31GenerateSurfaceMeshWithRoundHatEffff
001fdab9 T _ZN5Caver19HeroEntityComponent11GetBindingsEPSt6vectorINS_7BindingESaIS2_EE
001fe905 T _ZN5Caver19HeroEntityComponent12TargetObjectERKN5boost13intrusive_ptrINS_11SceneObjectEEEi
001fe721 T _ZN5Caver19HeroEntityComponent13HandleMessageEiPv
001fdd25 T _ZN5Caver19HeroEntityComponent15AddSafePositionEv
001fd9b1 T _ZN5Caver19HeroEntityComponent17InitWithComponentEPKS0_
001fe129 T _ZN5Caver19HeroEntityComponent18HandleDamageImpactEPNS_12DamageImpactE
001fdc4b T _ZN5Caver19HeroEntityComponent19PerformBindedActionEi
001fea79 T _ZN5Caver19HeroEntityComponent19ResetToSafePositionEv
001fe4f5 T _ZN5Caver19HeroEntityComponent20HandleItemCollectionEPNS_11SceneObjectE
001fdfc5 T _ZN5Caver19HeroEntityComponent21HandleDamageCollisionEPNS_23CollisionShapeComponentES2_RKNS_13CollisionInfoE
001fdb61 T _ZN5Caver19HeroEntityComponent22ValueForBindedPropertyEi
001fd9e5 T _ZN5Caver19HeroEntityComponent23LoadFromProtobufMessageERKNS_5Proto9ComponentE
001fdb85 T _ZN5Caver19HeroEntityComponent25SetValueForBindedPropertyEiRKNS_12BindingValueE
001fdb57 T _ZN5Caver19HeroEntityComponent30GetEnumValuesForBindedPropertyEiPSt6vectorINS_12BindingValueESaIS2_EE
001fdf19 T _ZN5Caver19HeroEntityComponent6UpdateEf
001fdc55 T _ZN5Caver19HeroEntityComponent7PrepareEv
001fd88d T _ZN5Caver19HeroEntityComponentC1Ev
001fd88d T _ZN5Caver19HeroEntityComponentC2Ev
003133f5 T _ZN5Caver19IsAndroidAssetsPathERKSs
00315c35 T _ZN5Caver19NewGUITextFieldImplEv
0028660b T _ZN5Caver19PauseViewController10UnloadViewEv
00286609 T _ZN5Caver19PauseViewController11SuspendViewEv
00286611 T _ZN5Caver19PauseViewController20PauseViewDidContinueEPNS_9PauseViewE
0028660d T _ZN5Caver19PauseViewController6UpdateEf
00286509 T _ZN5Caver19PauseViewController8LoadViewEv
002864e5 T _ZN5Caver19PauseViewControllerC1Ev
002864e5 T _ZN5Caver19PauseViewControllerC2Ev
00227007 T _ZN5Caver19PointInsideTriangleENS_7Vector2ES0_S0_S0_
001de911 T _ZN5Caver19PropertiesComponent11GetBindingsEPSt6vectorINS_7BindingESaIS2_EE
001decb5 T _ZN5Caver19PropertiesComponent14PropertyForKeyERKSs
001deaa1 T _ZN5Caver19PropertiesComponent15RegisterLibraryEv
001de81d T _ZN5Caver19PropertiesComponent17InitWithComponentEPKS0_
001deb91 T _ZN5Caver19PropertiesComponent17SetPropertyForKeyERKSsS2_
001dea97 T _ZN5Caver19PropertiesComponent19PerformBindedActionEi
001de9bd T _ZN5Caver19PropertiesComponent22ValueForBindedPropertyEi
001de85d T _ZN5Caver19PropertiesComponent23LoadFromProtobufMessageERKNS_5Proto9ComponentE
001de9dd T _ZN5Caver19PropertiesComponent25SetValueForBindedPropertyEiRKNS_12BindingValueE
001de9b3 T _ZN5Caver19PropertiesComponent30GetEnumValuesForBindedPropertyEiPSt6vectorINS_12BindingValueESaIS2_EE
001deb11 T _ZN5Caver19PropertiesComponent4LoadEv
001dea9b T _ZN5Caver19PropertiesComponent7PrepareEv
001de7a5 T _ZN5Caver19PropertiesComponentC1Ev
001de7a5 T _ZN5Caver19PropertiesComponentC2Ev
0021dc4d T _ZN5Caver19SimpleGlowComponent11GetBindingsEPSt6vectorINS_7BindingESaIS2_EE
0021e307 T _ZN5Caver19SimpleGlowComponent14AnimateToScaleEff
0021e0c1 T _ZN5Caver19SimpleGlowComponent16CreateVertexDataEv
0021da75 T _ZN5Caver19SimpleGlowComponent17InitWithComponentEPKS0_
0021e2fb T _ZN5Caver19SimpleGlowComponent19PerformBindedActionEi
0021df55 T _ZN5Caver19SimpleGlowComponent22ValueForBindedPropertyEi
0021dac1 T _ZN5Caver19SimpleGlowComponent23LoadFromProtobufMessageERKNS_5Proto9ComponentE
0021dfc5 T _ZN5Caver19SimpleGlowComponent25SetValueForBindedPropertyEiRKNS_12BindingValueE
0021df4b T _ZN5Caver19SimpleGlowComponent30GetEnumValuesForBindedPropertyEiPSt6vectorINS_12BindingValueESaIS2_EE
0021e3f9 T _ZN5Caver19SimpleGlowComponent4DrawEPNS_16RenderingContextERKNS_7Matrix4ERKNS_7Vector3ES8_
0021e319 T _ZN5Caver19SimpleGlowComponent6UpdateEf
0021e305 T _ZN5Caver19SimpleGlowComponent7PrepareEv
0021d9ed T _ZN5Caver19SimpleGlowComponentC1Ev
0021d9ed T _ZN5Caver19SimpleGlowComponentC2Ev
001e23dd T _ZN5Caver19SpawnPointComponent11GetBindingsEPSt6vectorINS_7BindingESaIS2_EE
001e22e9 T _ZN5Caver19SpawnPointComponent17InitWithComponentEPKS0_
001e275b T _ZN5Caver19SpawnPointComponent19PerformBindedActionEi
001e2635 T _ZN5Caver19SpawnPointComponent22ValueForBindedPropertyEi
001e2315 T _ZN5Caver19SpawnPointComponent23LoadFromProtobufMessageERKNS_5Proto9ComponentE
001e26e1 T _ZN5Caver19SpawnPointComponent25SetValueForBindedPropertyEiRKNS_12BindingValueE
001e24d5 T _ZN5Caver19SpawnPointComponent30GetEnumValuesForBindedPropertyEiPSt6vectorINS_12BindingValueESaIS2_EE
001e2289 T _ZN5Caver19SpawnPointComponentC1Ev
001e2289 T _ZN5Caver19SpawnPointComponentC2Ev
002b9cd5 T _ZN5Caver19StoreViewController10ResumeViewEv
002b9cd7 T _ZN5Caver19StoreViewController10UnloadViewEv
002b9cd3 T _ZN5Caver19StoreViewController11SuspendViewEv
002b8ea5 T _ZN5Caver19StoreViewController13ButtonPressedEPvPNS_8GUIEventE
002b9caf T _ZN5Caver19StoreViewController13ViewDidAppearEv
002b9ab1 T _ZN5Caver19StoreViewController15PurchaseProductERKN5boost10shared_ptrINS_12StoreProductEEE
002b9859 T _ZN5Caver19StoreViewController17RestoreCompletionERKSt6vectorISsSaISsEERKSs
002b9689 T _ZN5Caver19StoreViewController21ProductViewForProductERKSs
002b9175 T _ZN5Caver19StoreViewController22UpdateProductBuyButtonERKSs
002b942d T _ZN5Caver19StoreViewController24ProductRequestCompletionERKSsRKN5boost10shared_ptrINS_12StoreProductEEES2_
002b9ba5 T _ZN5Caver19StoreViewController40PurchaseViewControllerDidPurchaseProductEPNS_22PurchaseViewControllerE
002b96dd T _ZN5Caver19StoreViewController6UpdateEf
002b84d5 T _ZN5Caver19StoreViewController8LoadViewEv
002b839d T _ZN5Caver19StoreViewControllerC1Ev
002b839d T _ZN5Caver19StoreViewControllerC2Ev
002b84b1 T _ZN5Caver19StoreViewControllerD0Ev
002b8435 T _ZN5Caver19StoreViewControllerD1Ev
002b8435 T _ZN5Caver19StoreViewControllerD2Ev
001f6c65 T _ZN5Caver19StringForDamageTypeENS_10DamageTypeE
001e3091 T _ZN5Caver19TextBubbleComponent11GetBindingsEPSt6vectorINS_7BindingESaIS2_EE
001e3571 T _ZN5Caver19TextBubbleComponent13HandleMessageEiPv
001e30cd T _ZN5Caver19TextBubbleComponent15RegisterLibraryEv
001e34fd T _ZN5Caver19TextBubbleComponent16SetHandleTouchesEb
001e307d T _ZN5Caver19TextBubbleComponent17InitWithComponentEPKS0_
001e30c5 T _ZN5Caver19TextBubbleComponent19PerformBindedActionEi
001e3325 T _ZN5Caver19TextBubbleComponent21IsTextFinishedShowingEv
001e30a5 T _ZN5Caver19TextBubbleComponent22ValueForBindedPropertyEi
001e3089 T _ZN5Caver19TextBubbleComponent23LoadFromProtobufMessageERKNS_5Proto9ComponentE
001e30bb T _ZN5Caver19TextBubbleComponent25SetValueForBindedPropertyEiRKNS_12BindingValueE
001e309b T _ZN5Caver19TextBubbleComponent30GetEnumValuesForBindedPropertyEiPSt6vectorINS_12BindingValueESaIS2_EE
001e339d T _ZN5Caver19TextBubbleComponent4DrawEPNS_16RenderingContextEPKNS_6CameraERKNS_9RectangleE
001e3351 T _ZN5Caver19TextBubbleComponent6UpdateEf
001e30c9 T _ZN5Caver19TextBubbleComponent7PrepareEv
001e313d T _ZN5Caver19TextBubbleComponent8ShowTextERKSsf
001e3049 T _ZN5Caver19TextBubbleComponentC1Ev
001e3049 T _ZN5Caver19TextBubbleComponentC2Ev
00313811 T _ZN5Caver19TimerCurrentSecondsEv
0022bb95 T _ZN5Caver19WeaponGlowComponent11GetBindingsEPSt6vectorINS_7BindingESaIS2_EE
0022c2a1 T _ZN5Caver19WeaponGlowComponent16CreateVertexDataEiiiiPfS1_
0022c1a1 T _ZN5Caver19WeaponGlowComponent16CreateVertexDataEv
0022b949 T _ZN5Caver19WeaponGlowComponent17InitWithComponentEPKS0_
0022be6b T _ZN5Caver19WeaponGlowComponent19PerformBindedActionEi
0022beb9 T _ZN5Caver19WeaponGlowComponent21UpdateParticleEmitterEv
0022bcf1 T _ZN5Caver19WeaponGlowComponent22ValueForBindedPropertyEi
0022b97d T _ZN5Caver19WeaponGlowComponent23LoadFromProtobufMessageERKNS_5Proto9ComponentE
0022bdc5 T _ZN5Caver19WeaponGlowComponent25SetValueForBindedPropertyEiRKNS_12BindingValueE
0022bce7 T _ZN5Caver19WeaponGlowComponent30GetEnumValuesForBindedPropertyEiPSt6vectorINS_12BindingValueESaIS2_EE
0022c071 T _ZN5Caver19WeaponGlowComponent4DrawEPNS_16RenderingContextERKNS_7Matrix4ERKNS_7Vector3ES8_
0022c035 T _ZN5Caver19WeaponGlowComponent6UpdateEf
0022be75 T _ZN5Caver19WeaponGlowComponent7PrepareEv
0022c285 T _ZN5Caver19WeaponGlowComponent7SetFaceEiiii
0022c019 T _ZN5Caver19WeaponGlowComponent8SetColorERKNS_10FloatColorE
0022b80d T _ZN5Caver19WeaponGlowComponentC1Ev
0022b80d T _ZN5Caver19WeaponGlowComponentC2Ev
002df0b1 T _ZN5Caver20BlastParticleEmitter6UpdateEf
002a8905 T _ZN5Caver20ConfigureOverlayView10LayoutItemEPNS_20DraggableOverlayItemE
002a8059 T _ZN5Caver20ConfigureOverlayView13ButtonPressedEPvPNS_8GUIEventE
002a8779 T _ZN5Caver20ConfigureOverlayView14LayoutSubviewsEv
002a8225 T _ZN5Caver20ConfigureOverlayView17InitWithGameStateERKN5boost10shared_ptrINS_9GameStateEEE
002a9035 T _ZN5Caver20ConfigureOverlayView19HandleKeyboardEventERKNS_16GUIKeyboardEventE
002a8e0b T _ZN5Caver20ConfigureOverlayView21AlertViewWasDismissedEPNS_12GUIAlertViewE
002a8a29 T _ZN5Caver20ConfigureOverlayView23AddTransitionAnimationsEb
002a8b4d T _ZN5Caver20ConfigureOverlayView27DraggableOverlayItemDidMoveEPNS_20DraggableOverlayItemE
002a8d2d T _ZN5Caver20ConfigureOverlayView29AlertViewClickedButtonAtIndexEPNS_12GUIAlertViewEi
002a8e11 T _ZN5Caver20ConfigureOverlayView7HitTestERKNS_7Vector2E
002a7d3d T _ZN5Caver20ConfigureOverlayViewC1Ev
002a7d3d T _ZN5Caver20ConfigureOverlayViewC2Ev
00321027 T _ZN5Caver20CopyFromFileBuffer16EPhPKhi
00321045 T _ZN5Caver20CopyFromFileBuffer32EPhPKhi
002aac25 T _ZN5Caver20DraggableOverlayItem10TouchBeganERKNS_7FWTouchE
002aad01 T _ZN5Caver20DraggableOverlayItem10TouchEndedERKNS_7FWTouchE
002aac6d T _ZN5Caver20DraggableOverlayItem10TouchMovedERKNS_7FWTouchE
002aaa85 T _ZN5Caver20DraggableOverlayItem14LayoutSubviewsEv
002aad09 T _ZN5Caver20DraggableOverlayItem14TouchCancelledERKNS_7FWTouchE
002aaa89 T _ZN5Caver20DraggableOverlayItem8DrawRectEPNS_16RenderingContextERKNS_9RectangleERKNS_7Matrix4E
002aaa11 T _ZN5Caver20DraggableOverlayItem8SetColorENS_5ColorE
002aa7f5 T _ZN5Caver20DraggableOverlayItemC1Ev
002aa7f5 T _ZN5Caver20DraggableOverlayItemC2Ev
00217411 T _ZN5Caver20FireEmitterComponent11GetBindingsEPSt6vectorINS_7BindingESaIS2_EE
00217145 T _ZN5Caver20FireEmitterComponent17InitWithComponentEPKS0_
00217717 T _ZN5Caver20FireEmitterComponent19PerformBindedActionEi
00217615 T _ZN5Caver20FireEmitterComponent22ValueForBindedPropertyEi
0021719d T _ZN5Caver20FireEmitterComponent23LoadFromProtobufMessageERKNS_5Proto9ComponentE
00217665 T _ZN5Caver20FireEmitterComponent25SetValueForBindedPropertyEiRKNS_12BindingValueE
0021760b T _ZN5Caver20FireEmitterComponent30GetEnumValuesForBindedPropertyEiPSt6vectorINS_12BindingValueESaIS2_EE
00217749 T _ZN5Caver20FireEmitterComponent6UpdateEf
0021771b T _ZN5Caver20FireEmitterComponent7PrepareEv
00216f8d T _ZN5Caver20FireEmitterComponentC1Ev
00216f8d T _ZN5Caver20FireEmitterComponentC2Ev
00274749 T _ZN5Caver20GameInterfaceBuilder10IconButtonERKN5boost13intrusive_ptrINS_7TextureEEES6_
0027547d T _ZN5Caver20GameInterfaceBuilder10InfoBubbleERKSsf
002742c5 T _ZN5Caver20GameInterfaceBuilder10SmallLabelERKSsNS_5ColorES3_
002740e5 T _ZN5Caver20GameInterfaceBuilder11NormalLabelERKSsNS_5ColorES3_
0027453d T _ZN5Caver20GameInterfaceBuilder11PlainButtonERKN5boost13intrusive_ptrINS_7TextureEEES6_
00275319 T _ZN5Caver20GameInterfaceBuilder12TextGradientEffff
0027488d T _ZN5Caver20GameInterfaceBuilder21FramedButtonWithTitleERKSsb
002743b1 T _ZN5Caver20GameInterfaceBuilder22ControlButtonWithImageERKN5boost13intrusive_ptrINS_7TextureEEE
00274aa5 T _ZN5Caver20GameInterfaceBuilder23MainMenuButtonWithTitleERKSs
00274e79 T _ZN5Caver20GameInterfaceBuilder6SliderEff
00275175 T _ZN5Caver20GameInterfaceBuilder6SwitchEv
00274c21 T _ZN5Caver20GameInterfaceBuilder9AlertViewERKSsS2_iPS1_i
00283e35 T _ZN5Caver20HeroEquipmentManager10EquipArmorERKN5boost10shared_ptrINS_4ItemEEE
00283bb5 T _ZN5Caver20HeroEquipmentManager11EquipWeaponERKN5boost10shared_ptrINS_4ItemEEE
0028439d T _ZN5Caver20HeroEquipmentManager12ApplyLevelUpEv
002840ed T _ZN5Caver20HeroEquipmentManager17ApplyArmorTrinketERKN5boost10shared_ptrINS_4ItemEEE
00283d61 T _ZN5Caver20HeroEquipmentManager17ModelNameForArmorERKN5boost10shared_ptrINS_4ItemEEE
00283ec5 T _ZN5Caver20HeroEquipmentManager18ApplyWeaponTrinketERKN5boost10shared_ptrINS_4ItemEEE
00283d01 T _ZN5Caver20HeroEquipmentManager18UpdateWeaponDamageERKN5boost13intrusive_ptrINS_11SceneObjectEEE
002844cd T _ZN5Caver20HeroEquipmentManager19ApplyTrinketToSpellEPNS_11SceneObjectERKN5boost10shared_ptrINS_4ItemEEE
0028442d T _ZN5Caver20HeroEquipmentManager20ApplyTrinketToSpellsERKN5boost10shared_ptrINS_4ItemEEE
00283ef1 T _ZN5Caver20HeroEquipmentManager20ApplyTrinketToWeaponERKN5boost13intrusive_ptrINS_11SceneObjectEEERKNS1_10shared_ptrINS_4ItemEEE
002843c5 T _ZN5Caver20HeroEquipmentManager26ApplyCharacterStatsToSpellEPNS_11SceneObjectE
00283b79 T _ZN5Caver20HeroEquipmentManager4InitERKN5boost10shared_ptrINS_9GameStateEEERKNS1_13intrusive_ptrINS_11SceneObjectEEE
00283b69 T _ZN5Caver20HeroEquipmentManagerC1Ev
00283b69 T _ZN5Caver20HeroEquipmentManagerC2Ev
002c29e1 T _ZN5Caver20InventoryTrinketSlot10SetTrinketERKN5boost10shared_ptrINS_4ItemEEE
002c2c65 T _ZN5Caver20InventoryTrinketSlot10TouchBeganERKNS_7FWTouchE
002c2ec9 T _ZN5Caver20InventoryTrinketSlot10TouchEndedERKNS_7FWTouchE
002c2d59 T _ZN5Caver20InventoryTrinketSlot10TouchMovedERKNS_7FWTouchE
002c2bb9 T _ZN5Caver20InventoryTrinketSlot14LayoutSubviewsEv
002c2ee9 T _ZN5Caver20InventoryTrinketSlot14TouchCancelledERKNS_7FWTouchE
002c2c5b T _ZN5Caver20InventoryTrinketSlot20MenuItemSlotSelectedEPNS_12MenuItemSlotE
002c2c5f T _ZN5Caver20InventoryTrinketSlot22MenuItemSlotDeselectedEPNS_12MenuItemSlotE
002c2d3d T _ZN5Caver20InventoryTrinketSlot22UpdateHighlightedStateEv
002c2aa9 T _ZN5Caver20InventoryTrinketSlot23SetEmptySlotIconTextureERKN5boost13intrusive_ptrINS_7TextureEEE
002c281d T _ZN5Caver20InventoryTrinketSlot4InitERKN5boost10shared_ptrINS_9GameStateEEEf
002c2bbb T _ZN5Caver20InventoryTrinketSlot6UpdateEf
002c2bbf T _ZN5Caver20InventoryTrinketSlot8DrawRectEPNS_16RenderingContextERKNS_9RectangleERKNS_7Matrix4E
002c27e1 T _ZN5Caver20InventoryTrinketSlotC1Ev
002c27e1 T _ZN5Caver20InventoryTrinketSlotC2Ev
00315c31 T _ZN5Caver20NewGUIFileDialogImplEv
001dc485 T _ZN5Caver20OverlayTextComponent10UpdateTextEv
001dbf9d T _ZN5Caver20OverlayTextComponent11GetBindingsEPSt6vectorINS_7BindingESaIS2_EE
001dc601 T _ZN5Caver20OverlayTextComponent12UpdateSpriteEv
001dc34d T _ZN5Caver20OverlayTextComponent13SetSpriteNameERKSs
001dc343 T _ZN5Caver20OverlayTextComponent13SetTextOffsetERKNS_7Vector2E
001dc381 T _ZN5Caver20OverlayTextComponent15RegisterLibraryEv
001dc363 T _ZN5Caver20OverlayTextComponent15SetSpriteOffsetERKNS_7Vector2E
001dbddd T _ZN5Caver20OverlayTextComponent17InitWithComponentEPKS0_
001dc373 T _ZN5Caver20OverlayTextComponent19PerformBindedActionEi
001dca45 T _ZN5Caver20OverlayTextComponent20CombatTextFromObjectERKSsRKN5boost13intrusive_ptrINS_11SceneObjectEEERKNS_7Vector3Ef
001dc1f5 T _ZN5Caver20OverlayTextComponent22ValueForBindedPropertyEi
001dbe15 T _ZN5Caver20OverlayTextComponent23LoadFromProtobufMessageERKNS_5Proto9ComponentE
001dc24d T _ZN5Caver20OverlayTextComponent25SetValueForBindedPropertyEiRKNS_12BindingValueE
001dc1eb T _ZN5Caver20OverlayTextComponent30GetEnumValuesForBindedPropertyEiPSt6vectorINS_12BindingValueESaIS2_EE
001dc7c9 T _ZN5Caver20OverlayTextComponent4DrawEPNS_16RenderingContextEPKNS_6CameraERKNS_9RectangleE
001dc401 T _ZN5Caver20OverlayTextComponent6UpdateEf
001dc3f1 T _ZN5Caver20OverlayTextComponent7FadeOutEff
001dc37d T _ZN5Caver20OverlayTextComponent7PrepareEv
001dc32d T _ZN5Caver20OverlayTextComponent7SetTextERKSs
001dbd75 T _ZN5Caver20OverlayTextComponentC1Ev
001dbd75 T _ZN5Caver20OverlayTextComponentC2Ev
00286b45 T _ZN5Caver20PortalViewController13ButtonPressedEPvPNS_8GUIEventE
00286d7b T _ZN5Caver20PortalViewController23MapViewDidTapEmptySpaceEPNS_7MapViewE
00286d77 T _ZN5Caver20PortalViewController25MapViewDidTapSelectedNodeEPNS_7MapViewE
00286c75 T _ZN5Caver20PortalViewController28MapViewDidSelectionDidChangeEPNS_7MapViewE
00286ef1 T _ZN5Caver20PortalViewController28StoreViewControllerDismissedEPNS_19StoreViewControllerE
00286d81 T _ZN5Caver20PortalViewController33GuideToggleViewEnableStateChangedEPNS_15GuideToggleViewE
00286ef5 T _ZN5Caver20PortalViewController37StoreViewControllerDidPurchaseProductEPNS_19StoreViewControllerERKSs
00286eb7 T _ZN5Caver20PortalViewController40PurchaseViewControllerDidPurchaseProductEPNS_22PurchaseViewControllerE
00286809 T _ZN5Caver20PortalViewController8LoadViewEv
002867c9 T _ZN5Caver20PortalViewControllerC1Ev
002867c9 T _ZN5Caver20PortalViewControllerC2Ev
00298eb5 T _ZN5Caver20ProfileSelectionView10AnimateOutEv
00298561 T _ZN5Caver20ProfileSelectionView12LoadProfilesEv
00298b45 T _ZN5Caver20ProfileSelectionView13ButtonPressedEPvPNS_8GUIEventE
00298b55 T _ZN5Caver20ProfileSelectionView14LayoutSubviewsEv
00299049 T _ZN5Caver20ProfileSelectionView19HandleKeyboardEventERKNS_16GUIKeyboardEventE
00298c25 T _ZN5Caver20ProfileSelectionView24ProfilePanelViewDidStartEPNS_16ProfilePanelViewE
00298c9d T _ZN5Caver20ProfileSelectionView28ProfilePanelDidDeleteProfileEPNS_16ProfilePanelViewE
00298c1d T _ZN5Caver20ProfileSelectionView6UpdateEf
00298c21 T _ZN5Caver20ProfileSelectionView8DrawRectEPNS_16RenderingContextERKNS_9RectangleERKNS_7Matrix4E
00298d49 T _ZN5Caver20ProfileSelectionView9AnimateInEv
00298461 T _ZN5Caver20ProfileSelectionViewC1Ev
00298461 T _ZN5Caver20ProfileSelectionViewC2Ev
00298445 T _ZN5Caver20ProfileSortPredicateERKN5boost10shared_ptrINS_13PlayerProfileEEES5_
002dd335 T _ZN5Caver20ReadPODModelFromFileEP13CPVRTModelPODRKSs
002fb249 T _ZN5Caver20SaveByteBufferToFileEPKhjRKSs
00312dc9 T _ZN5Caver20SetCurrentDeviceTypeENS_10DeviceTypeE
001e1d99 T _ZN5Caver20SoundEffectComponent11GetBindingsEPSt6vectorINS_7BindingESaIS2_EE
001e1ba9 T _ZN5Caver20SoundEffectComponent13CancelDelayedEv
001e2049 T _ZN5Caver20SoundEffectComponent13PlayWithDelayEf
001e1bfd T _ZN5Caver20SoundEffectComponent17InitWithComponentEPKS0_
001e203f T _ZN5Caver20SoundEffectComponent19PerformBindedActionEi
001e1ef1 T _ZN5Caver20SoundEffectComponent22ValueForBindedPropertyEi
001e1c2d T _ZN5Caver20SoundEffectComponent23LoadFromProtobufMessageERKNS_5Proto9ComponentE
001e1f29 T _ZN5Caver20SoundEffectComponent25SetValueForBindedPropertyEiRKNS_12BindingValueE
001e1ee7 T _ZN5Caver20SoundEffectComponent30GetEnumValuesForBindedPropertyEiPSt6vectorINS_12BindingValueESaIS2_EE
001e2121 T _ZN5Caver20SoundEffectComponent33SoundEffectSourceDidFinishPlayingEPNS_17SoundEffectSourceE
001e2043 T _ZN5Caver20SoundEffectComponent4PlayEv
001e2115 T _ZN5Caver20SoundEffectComponent4StopEv
001e1ce9 T _ZN5Caver20SoundEffectComponent7PrepareEv
001e2109 T _ZN5Caver20SoundEffectComponent9IsPlayingEv
001e1a8d T _ZN5Caver20SoundEffectComponentC1Ev
001e1a8d T _ZN5Caver20SoundEffectComponentC2Ev
001e1bdb T _ZN5Caver20SoundEffectComponentD0Ev
001e1afd T _ZN5Caver20SoundEffectComponentD1Ev
001e1afd T _ZN5Caver20SoundEffectComponentD2Ev
002e1b09 T _ZN5Caver20SparkParticleEmitter6UpdateEf
002f5d45 T _ZN5Caver20SubdirectoryWithNameERKSsS1_b
002e1f81 T _ZN5Caver20TrailParticleEmitter6UpdateEf
002e1f61 T _ZN5Caver20TrailParticleEmitterC1Ev
002e1f61 T _ZN5Caver20TrailParticleEmitterC2Ev
0022cf37 T _ZN5Caver20WeaponTrailComponent10AddSegmentERKNS_7Vector3ES3_f
0022cf21 T _ZN5Caver20WeaponTrailComponent10ResetTrailEv
0022cdc9 T _ZN5Caver20WeaponTrailComponent11GetBindingsEPSt6vectorINS_7BindingESaIS2_EE
0022cc75 T _ZN5Caver20WeaponTrailComponent17InitWithComponentEPKS0_
0022ce75 T _ZN5Caver20WeaponTrailComponent22ValueForBindedPropertyEi
0022cccd T _ZN5Caver20WeaponTrailComponent23LoadFromProtobufMessageERKNS_5Proto9ComponentE
0022ce95 T _ZN5Caver20WeaponTrailComponent25SetValueForBindedPropertyEiRKNS_12BindingValueE
0022ce6b T _ZN5Caver20WeaponTrailComponent30GetEnumValuesForBindedPropertyEiPSt6vectorINS_12BindingValueESaIS2_EE
0022cf3d T _ZN5Caver20WeaponTrailComponent6UpdateEf
0022cbd5 T _ZN5Caver20WeaponTrailComponentC1Ev
0022cbd5 T _ZN5Caver20WeaponTrailComponentC2Ev
003052f1 T _ZN5Caver21AddCappedRectToSpriteEPNS_6SpriteERKN5boost13intrusive_ptrINS_7TextureEEERKNS_9RectangleEf
002f49b9 T _ZN5Caver21AndroidCheckPromotionERKSs
002f53ad T _ZN5Caver21AndroidDeleteSnapshotERKSs
002f4e79 T _ZN5Caver21AndroidGetAnalyticsIdEv
002f4c65 T _ZN5Caver21AndroidIsAgeOfConsentEv
0032105d T _ZN5Caver21ConvertToFileBuffer16EPhi
0031358d T _ZN5Caver21CreateDirectoryAtPathERKSsb
00290fe1 T _ZN5Caver21CreditsViewController13ButtonPressedEPvPNS_8GUIEventE
00291089 T _ZN5Caver21CreditsViewController13ViewDidAppearEv
00290e45 T _ZN5Caver21CreditsViewController8LoadViewEv
001f8325 T _ZN5Caver21EntityActionComponent10IsFinishedEv
001f8055 T _ZN5Caver21EntityActionComponent11GetBindingsEPSt6vectorINS_7BindingESaIS2_EE
001f8249 T _ZN5Caver21EntityActionComponent13HandleMessageEiPv
001f7f61 T _ZN5Caver21EntityActionComponent17InitWithComponentEPKS0_
001f81db T _ZN5Caver21EntityActionComponent19PerformBindedActionEi
001f8101 T _ZN5Caver21EntityActionComponent22ValueForBindedPropertyEi
001f7fa1 T _ZN5Caver21EntityActionComponent23LoadFromProtobufMessageERKNS_5Proto9ComponentE
001f8121 T _ZN5Caver21EntityActionComponent25SetValueForBindedPropertyEiRKNS_12BindingValueE
001f80f7 T _ZN5Caver21EntityActionComponent30GetEnumValuesForBindedPropertyEiPSt6vectorINS_12BindingValueESaIS2_EE
001f81e1 T _ZN5Caver21EntityActionComponent6UpdateEf
001f8299 T _ZN5Caver21EntityActionComponent7PerformEv
001f81df T _ZN5Caver21EntityActionComponent7PrepareEv
001f7efd T _ZN5Caver21EntityActionComponentC1Ev
001f7efd T _ZN5Caver21EntityActionComponentC2Ev
00313719 T _ZN5Caver21GetFilesWithExtensionERKSsS1_PSt6vectorISsSaISsEE
00284771 T _ZN5Caver21LevelUpViewController21NumPointsForAttributeENS_18CharacterAttributeE
00284745 T _ZN5Caver21LevelUpViewController22CharacterViewDismissedEPNS_13CharacterViewE
002845ed T _ZN5Caver21LevelUpViewController8LoadViewEv
002845c5 T _ZN5Caver21LevelUpViewControllerC1Ev
002845c5 T _ZN5Caver21LevelUpViewControllerC2Ev
0030ec81 T _ZN5Caver21LineSegmentsIntersectERKNS_7Vector2ES2_S2_S2_PfS3_b
002fb10d T _ZN5Caver21NewByteBufferFromFileERKSsPj
00313035 T _ZN5Caver21PathForResourceOfTypeERKSsS1_
00310b6d T _ZN5Caver21PolygonSelfIntersectsEPKNS_7Vector2Ei
0021c965 T _ZN5Caver21PortalEffectComponent11GetBindingsEPSt6vectorINS_7BindingESaIS2_EE
0021cb31 T _ZN5Caver21PortalEffectComponent14CreateVerticesEv
0021ce21 T _ZN5Caver21PortalEffectComponent14UpdateVerticesEv
0021c73d T _ZN5Caver21PortalEffectComponent17InitWithComponentEPKS0_
0021cdb3 T _ZN5Caver21PortalEffectComponent19PerformBindedActionEi
0021ca69 T _ZN5Caver21PortalEffectComponent22ValueForBindedPropertyEi
0021c779 T _ZN5Caver21PortalEffectComponent23LoadFromProtobufMessageERKNS_5Proto9ComponentE
0021ca99 T _ZN5Caver21PortalEffectComponent25SetValueForBindedPropertyEiRKNS_12BindingValueE
0021ca5f T _ZN5Caver21PortalEffectComponent30GetEnumValuesForBindedPropertyEiPSt6vectorINS_12BindingValueESaIS2_EE
0021ced5 T _ZN5Caver21PortalEffectComponent4DrawEPNS_16RenderingContextERKNS_7Matrix4ERKNS_7Vector3ES8_
0021cdc1 T _ZN5Caver21PortalEffectComponent6UpdateEf
0021cdbd T _ZN5Caver21PortalEffectComponent7PrepareEv
0021c5d1 T _ZN5Caver21PortalEffectComponentC1Ev
0021c5d1 T _ZN5Caver21PortalEffectComponentC2Ev
00312539 T _ZN5Caver21RootsForCubicEquationEffffPf
001e03b5 T _ZN5Caver21ShadowVolumeComponent11GetBindingsEPSt6vectorINS_7BindingESaIS2_EE
001e041d T _ZN5Caver21ShadowVolumeComponent12UpdateVolumeEv
001e03a1 T _ZN5Caver21ShadowVolumeComponent17InitWithComponentEPKS0_
001e03e9 T _ZN5Caver21ShadowVolumeComponent19PerformBindedActionEi
001e03c9 T _ZN5Caver21ShadowVolumeComponent22ValueForBindedPropertyEi
001e03ad T _ZN5Caver21ShadowVolumeComponent23LoadFromProtobufMessageERKNS_5Proto9ComponentE
001e03df T _ZN5Caver21ShadowVolumeComponent25SetValueForBindedPropertyEiRKNS_12BindingValueE
001e03bf T _ZN5Caver21ShadowVolumeComponent30GetEnumValuesForBindedPropertyEiPSt6vectorINS_12BindingValueESaIS2_EE
001e0595 T _ZN5Caver21ShadowVolumeComponent4DrawEPNS_16RenderingContextERKN5boost13intrusive_ptrINS_14LightComponentEEERKNS_7Matrix4E
001e0535 T _ZN5Caver21ShadowVolumeComponent6UpdateEf
001e03ed T _ZN5Caver21ShadowVolumeComponent8SetModelERKN5boost13intrusive_ptrINS_14ModelComponentEEE
001e0341 T _ZN5Caver21ShadowVolumeComponentC1Ev
001e0341 T _ZN5Caver21ShadowVolumeComponentC2Ev
0031ee7d T _ZN5Caver21TextureConversionInfo14ConvertTextureEPNS_7TextureEPNS_5ImageE
0031edfd T _ZN5Caver21TextureConversionInfo23LoadFromProtobufMessageERKNS_5Proto22Texture_ConversionInfoE
002e25e1 T _ZN5Caver21WhooshParticleEmitter6UpdateEf
002e25bd T _ZN5Caver21WhooshParticleEmitterC1Ev
002e25bd T _ZN5Caver21WhooshParticleEmitterC2Ev
002f4f4d T _ZN5Caver22AndroidCopyToClipboardERKSsS1_
002f4381 T _ZN5Caver22AndroidQuitApplicationEv
002f50f1 T _ZN5Caver22AndroidStartReviewFlowEv
002fd839 T _ZN5Caver22BasicRenderingPrograms12AddToContextEPNS_16RenderingContextE
0030e85d T _ZN5Caver22CircleIntersectsCircleERKNS_6CircleERKNS_7Vector2EffS2_S5_ffPS3_Pf
00313481 T _ZN5Caver22DocumentsDirectoryPathEv
00275ee5 T _ZN5Caver22GameMenuViewController17ViewWillDisappearEv
00276693 T _ZN5Caver22GameMenuViewController22CharacterViewDismissedEPNS_13CharacterViewE
002769cf T _ZN5Caver22GameMenuViewController25SettingsViewDidQuitToMenuEPNS_12SettingsViewE
00276ee3 T _ZN5Caver22GameMenuViewController28StoreViewControllerDismissedEPNS_19StoreViewControllerE
0027669b T _ZN5Caver22GameMenuViewController29InventoryViewTrinketDidChangeEPNS_13InventoryViewENS_21InventoryViewItemTypeE
00276bfd T _ZN5Caver22GameMenuViewController33GuideToggleViewEnableStateChangedEPNS_15GuideToggleViewE
00276697 T _ZN5Caver22GameMenuViewController34InventoryViewSelectedItemDidChangeEPNS_13InventoryViewENS_21InventoryViewItemTypeE
00276679 T _ZN5Caver22GameMenuViewController34TabbedMenuViewDismissButtonPressedEPNS_14TabbedMenuViewE
00275f01 T _ZN5Caver22GameMenuViewController34TabbedMenuViewSelectedTabDidChangeEPNS_14TabbedMenuViewE
002768e1 T _ZN5Caver22GameMenuViewController36SettingsViewWantsToConfigureControlsEPNS_12SettingsViewE
00276a0d T _ZN5Caver22GameMenuViewController36SettingsViewWantsToPresentOnlineViewEPNS_12SettingsViewE
00276ee9 T _ZN5Caver22GameMenuViewController37StoreViewControllerDidPurchaseProductEPNS_19StoreViewControllerERKSs
00276b0d T _ZN5Caver22GameMenuViewController38SettingsViewDidShowOfflineAchievementsEPNS_12SettingsViewE
00276e0d T _ZN5Caver22GameMenuViewController40PurchaseViewControllerDidPurchaseProductEPNS_22PurchaseViewControllerE
00275c69 T _ZN5Caver22GameMenuViewController8LoadViewEv
00275b49 T _ZN5Caver22GameMenuViewControllerC1Ev
00275b49 T _ZN5Caver22GameMenuViewControllerC2Ev
00275c45 T _ZN5Caver22GameMenuViewControllerD0Ev
00275b99 T _ZN5Caver22GameMenuViewControllerD1Ev
00275b99 T _ZN5Caver22GameMenuViewControllerD2Ev
00277ac7 T _ZN5Caver22GameOverViewController10UnloadViewEv
00277b09 T _ZN5Caver22GameOverViewController11ShowAdMaybeEv
00277ac5 T _ZN5Caver22GameOverViewController11SuspendViewEv
00277b8d T _ZN5Caver22GameOverViewController23GameOverViewDidContinueEPNS_12GameOverViewE
00277ac9 T _ZN5Caver22GameOverViewController6UpdateEf
002779c5 T _ZN5Caver22GameOverViewController8LoadViewEv
00277991 T _ZN5Caver22GameOverViewControllerC1Ev
00277991 T _ZN5Caver22GameOverViewControllerC2Ev
003133e9 T _ZN5Caver22GetAndroidAssetManagerEv
00225bf1 T _ZN5Caver22GroundPolygonComponent10SetPolygonERKNS_7PolygonE
00226085 T _ZN5Caver22GroundPolygonComponent11GetBindingsEPSt6vectorINS_7BindingESaIS2_EE
00225f45 T _ZN5Caver22GroundPolygonComponent12UpdateBoundsEv
00225d05 T _ZN5Caver22GroundPolygonComponent16SetDefaultValuesEv
00225b89 T _ZN5Caver22GroundPolygonComponent17InitWithComponentEPKS0_
00226235 T _ZN5Caver22GroundPolygonComponent22ValueForBindedPropertyEi
00225d8d T _ZN5Caver22GroundPolygonComponent23LoadFromProtobufMessageERKNS_5Proto9ComponentE
0022627d T _ZN5Caver22GroundPolygonComponent25SetValueForBindedPropertyEiRKNS_12BindingValueE
0022622b T _ZN5Caver22GroundPolygonComponent30GetEnumValuesForBindedPropertyEiPSt6vectorINS_12BindingValueESaIS2_EE
00226361 T _ZN5Caver22GroundPolygonComponent7ProcessEPSt6vectorIN5boost13intrusive_ptrINS_9ComponentEEESaIS5_EE
00225c5d T _ZN5Caver22GroundPolygonComponent8NewBlockEv
00225aed T _ZN5Caver22GroundPolygonComponentC1Ev
00225aed T _ZN5Caver22GroundPolygonComponentC2Ev
00206359 T _ZN5Caver22HookshotTrailComponent11GetBindingsEPSt6vectorINS_7BindingESaIS2_EE
0020639b T _ZN5Caver22HookshotTrailComponent14CreateVerticesEv
00206435 T _ZN5Caver22HookshotTrailComponent14UpdateVerticesEv
0020634d T _ZN5Caver22HookshotTrailComponent17InitWithComponentEPKS0_
0020638d T _ZN5Caver22HookshotTrailComponent19PerformBindedActionEi
0020636d T _ZN5Caver22HookshotTrailComponent22ValueForBindedPropertyEi
00206351 T _ZN5Caver22HookshotTrailComponent23LoadFromProtobufMessageERKNS_5Proto9ComponentE
00206383 T _ZN5Caver22HookshotTrailComponent25SetValueForBindedPropertyEiRKNS_12BindingValueE
00206363 T _ZN5Caver22HookshotTrailComponent30GetEnumValuesForBindedPropertyEiPSt6vectorINS_12BindingValueESaIS2_EE
00206605 T _ZN5Caver22HookshotTrailComponent4DrawEPNS_16RenderingContextERKNS_7Matrix4ERKNS_7Vector3ES8_
0020642f T _ZN5Caver22HookshotTrailComponent6UpdateEf
00206397 T _ZN5Caver22HookshotTrailComponent7PrepareEv
00206315 T _ZN5Caver22HookshotTrailComponentC1Ev
00206315 T _ZN5Caver22HookshotTrailComponentC2Ev
0020a2fd T _ZN5Caver22MagicHookshotComponent11CreateBlastEv
00209cbd T _ZN5Caver22MagicHookshotComponent11GetBindingsEPSt6vectorINS_7BindingESaIS2_EE
0020a905 T _ZN5Caver22MagicHookshotComponent13HandleMessageEiPv
00209ad5 T _ZN5Caver22MagicHookshotComponent17InitWithComponentEPKS0_
00209f49 T _ZN5Caver22MagicHookshotComponent19FindGrabbableObjectEv
00209dfb T _ZN5Caver22MagicHookshotComponent19PerformBindedActionEi
00209d65 T _ZN5Caver22MagicHookshotComponent22ValueForBindedPropertyEi
00209b0d T _ZN5Caver22MagicHookshotComponent23LoadFromProtobufMessageERKNS_5Proto9ComponentE
00209d89 T _ZN5Caver22MagicHookshotComponent25SetValueForBindedPropertyEiRKNS_12BindingValueE
00209d5b T _ZN5Caver22MagicHookshotComponent30GetEnumValuesForBindedPropertyEiPSt6vectorINS_12BindingValueESaIS2_EE
0020a1f1 T _ZN5Caver22MagicHookshotComponent4CastEv
0020a425 T _ZN5Caver22MagicHookshotComponent6UpdateEf
0020a2cd T _ZN5Caver22MagicHookshotComponent7DestroyEv
00209e05 T _ZN5Caver22MagicHookshotComponent7PrepareEv
002097f9 T _ZN5Caver22MagicHookshotComponentC1Ev
002097f9 T _ZN5Caver22MagicHookshotComponentC2Ev
0028500d T _ZN5Caver22MainMenuViewController10ResumeViewEv
0028508d T _ZN5Caver22MainMenuViewController10UnloadViewEv
00285009 T _ZN5Caver22MainMenuViewController11SuspendViewEv
00284eb9 T _ZN5Caver22MainMenuViewController13ViewDidAppearEv
00285e01 T _ZN5Caver22MainMenuViewController20MainMenuViewDidStartEPNS_12MainMenuViewE
00285b85 T _ZN5Caver22MainMenuViewController21AlertViewWasDismissedEPNS_12GUIAlertViewE
00285589 T _ZN5Caver22MainMenuViewController22CompleteInitialPrivacyEv
00284d99 T _ZN5Caver22MainMenuViewController22GoogleSignInCompletionEbRKSs
00285acf T _ZN5Caver22MainMenuViewController23ChooseAgeViewAgeChangedEPNS_13ChooseAgeViewE
00285ef5 T _ZN5Caver22MainMenuViewController23MainMenuViewDidOpenShopEPNS_12MainMenuViewE
00285fc9 T _ZN5Caver22MainMenuViewController26MainMenuViewDidGoToCreditsEPNS_12MainMenuViewE
0028525d T _ZN5Caver22MainMenuViewController26ShowNeutralAgeScreenDialogEv
00285b09 T _ZN5Caver22MainMenuViewController29AlertViewClickedButtonAtIndexEPNS_12GUIAlertViewEi
0028561d T _ZN5Caver22MainMenuViewController30ShowPrivacyPolicyConsentDialogEv
00285a59 T _ZN5Caver22MainMenuViewController32MainMenuViewDidOpenPrivacyPolicyEPNS_12MainMenuViewE
00285bcf T _ZN5Caver22MainMenuViewController32ProfileManagerDidDownloadProfileEPNS_14ProfileManagerERKSs
00286095 T _ZN5Caver22MainMenuViewController38MainMenuViewDidShowOfflineAchievementsEPNS_12MainMenuViewE
00285be9 T _ZN5Caver22MainMenuViewController38ProfileSelectionViewControllerDidStartEPNS_20ProfileSelectionViewERKN5boost10shared_ptrINS_13PlayerProfileEEE
00285091 T _ZN5Caver22MainMenuViewController6UpdateEf
00284a3d T _ZN5Caver22MainMenuViewController8LoadViewEv
0028485d T _ZN5Caver22MainMenuViewControllerC1Ev
0028485d T _ZN5Caver22MainMenuViewControllerC2Ev
00284a19 T _ZN5Caver22MainMenuViewControllerD0Ev
00284941 T _ZN5Caver22MainMenuViewControllerD1Ev
00284941 T _ZN5Caver22MainMenuViewControllerD2Ev
00202189 T _ZN5Caver22MonsterEntityComponent11GetBindingsEPSt6vectorINS_7BindingESaIS2_EE
00203271 T _ZN5Caver22MonsterEntityComponent13HandleMessageEiPv
002025a7 T _ZN5Caver22MonsterEntityComponent16SetDamageEnabledEb
00201ffd T _ZN5Caver22MonsterEntityComponent17InitWithComponentEPKS0_
00202785 T _ZN5Caver22MonsterEntityComponent18HandleDamageImpactEPNS_12DamageImpactE
002024c7 T _ZN5Caver22MonsterEntityComponent19PerformBindedActionEi
00202339 T _ZN5Caver22MonsterEntityComponent22ValueForBindedPropertyEi
00202065 T _ZN5Caver22MonsterEntityComponent23LoadFromProtobufMessageERKNS_5Proto9ComponentE
00202385 T _ZN5Caver22MonsterEntityComponent25SetValueForBindedPropertyEiRKNS_12BindingValueE
0020232f T _ZN5Caver22MonsterEntityComponent30GetEnumValuesForBindedPropertyEiPSt6vectorINS_12BindingValueESaIS2_EE
002025b9 T _ZN5Caver22MonsterEntityComponent6UpdateEf
002024d1 T _ZN5Caver22MonsterEntityComponent7PrepareEv
00201f91 T _ZN5Caver22MonsterEntityComponentC1Ev
00201f91 T _ZN5Caver22MonsterEntityComponentC2Ev
0028ee49 T _ZN5Caver22OfflineAchievementView14LayoutSubviewsEv
0028ea91 T _ZN5Caver22OfflineAchievementView14SetAchievementERKN5boost10shared_ptrINS_11AchievementEEEbf
0028e60d T _ZN5Caver22OfflineAchievementViewC1Ev
0028e60d T _ZN5Caver22OfflineAchievementViewC2Ev
0021be7d T _ZN5Caver22ParticleFieldComponent11GetBindingsEPSt6vectorINS_7BindingESaIS2_EE
0021be69 T _ZN5Caver22ParticleFieldComponent17InitWithComponentEPKS0_
0021beb1 T _ZN5Caver22ParticleFieldComponent19PerformBindedActionEi
0021be91 T _ZN5Caver22ParticleFieldComponent22ValueForBindedPropertyEi
0021be75 T _ZN5Caver22ParticleFieldComponent23LoadFromProtobufMessageERKNS_5Proto9ComponentE
0021bea7 T _ZN5Caver22ParticleFieldComponent25SetValueForBindedPropertyEiRKNS_12BindingValueE
0021be87 T _ZN5Caver22ParticleFieldComponent30GetEnumValuesForBindedPropertyEiPSt6vectorINS_12BindingValueESaIS2_EE
0021beb9 T _ZN5Caver22ParticleFieldComponent4DrawEPNS_16RenderingContextERKNS_7Matrix4ERKNS_7Vector3ES8_
0021beb5 T _ZN5Caver22ParticleFieldComponent6UpdateEf
0021be19 T _ZN5Caver22ParticleFieldComponentC1Ev
0021be19 T _ZN5Caver22ParticleFieldComponentC2Ev
00313bf5 T _ZN5Caver22PathForCachesDirectoryERKSsb
00203891 T _ZN5Caver22PhysicsObjectComponent11GetBindingsEPSt6vectorINS_7BindingESaIS2_EE
00203f35 T _ZN5Caver22PhysicsObjectComponent13HandleMessageEiPv
00203dc9 T _ZN5Caver22PhysicsObjectComponent15RegisterLibraryEv
00203679 T _ZN5Caver22PhysicsObjectComponent17InitWithComponentEPKS0_
00203f17 T _ZN5Caver22PhysicsObjectComponent17SetPhysicsEnabledEb
00203d63 T _ZN5Caver22PhysicsObjectComponent19PerformBindedActionEi
00203f2d T _ZN5Caver22PhysicsObjectComponent21HandleGroundCollisionERKNS_20CollisionMessageDataE
00203be9 T _ZN5Caver22PhysicsObjectComponent22ValueForBindedPropertyEi
002036d1 T _ZN5Caver22PhysicsObjectComponent23LoadFromProtobufMessageERKNS_5Proto9ComponentE
00203c79 T _ZN5Caver22PhysicsObjectComponent25SetValueForBindedPropertyEiRKNS_12BindingValueE
00203bdf T _ZN5Caver22PhysicsObjectComponent30GetEnumValuesForBindedPropertyEiPSt6vectorINS_12BindingValueESaIS2_EE
00203e39 T _ZN5Caver22PhysicsObjectComponent6UpdateEf
00203d69 T _ZN5Caver22PhysicsObjectComponent7PrepareEv
002035f1 T _ZN5Caver22PhysicsObjectComponentC1Ev
002035f1 T _ZN5Caver22PhysicsObjectComponentC2Ev
00316e51 T _ZN5Caver22ProfileManager_Android12SaveSnapshotEPNS_13PlayerProfileERKSs
00317191 T _ZN5Caver22ProfileManager_Android18NewProfileIsBetterERKNS_12ProfileStatsES3_
00316f2d T _ZN5Caver22ProfileManager_Android20HandleSnapshotLoadedERKSsS2_
00317551 T _ZN5Caver22ProfileManager_Android20HideCloudLoadingViewEv
00317381 T _ZN5Caver22ProfileManager_Android20ShowCloudLoadingViewEv
00316d11 T _ZN5Caver22ProfileManager_Android21DownloadCloudProfilesERKSsd
00316d89 T _ZN5Caver22ProfileManager_Android21PlayerProfileWasSavedEPNS_13PlayerProfileEb
0031754d T _ZN5Caver22ProfileManager_Android24SkipLoadingButtonPressedEPvPNS_8GUIEventE
00316d19 T _ZN5Caver22ProfileManager_Android27DeleteProfileWithIdentifierERKSs
00316f6d T _ZN5Caver22ProfileManager_Android27HandleDownloadedProfileDataERKSs
00316d85 T _ZN5Caver22ProfileManager_Android37SetPreviousCloudSaveTimeToCurrentTimeEv
00316cb1 T _ZN5Caver22ProfileManager_AndroidC1Ev
00316cb1 T _ZN5Caver22ProfileManager_AndroidC2Ev
00316cd5 T _ZN5Caver22ProfileManager_AndroidD1Ev
00316cd5 T _ZN5Caver22ProfileManager_AndroidD2Ev
002b6311 T _ZN5Caver22PurchaseViewController10SetProductERKN5boost10shared_ptrINS_12StoreProductEEE
002b5b79 T _ZN5Caver22PurchaseViewController10UpdateViewEv
002b6001 T _ZN5Caver22PurchaseViewController12FetchProductERKSs
002b592d T _ZN5Caver22PurchaseViewController13ButtonPressedEPvPNS_8GUIEventE
002b64bd T _ZN5Caver22PurchaseViewController13ViewDidAppearEv
002b63d9 T _ZN5Caver22PurchaseViewController15EnableBuyButtonEv
002b64e1 T _ZN5Caver22PurchaseViewController18PurchaseCompletionERKSsbS2_
002b6625 T _ZN5Caver22PurchaseViewController21HandlePurchaseSuccessEv
002b61ed T _ZN5Caver22PurchaseViewController24ProductRequestCompletionERKSsRKN5boost10shared_ptrINS_12StoreProductEEES2_
002b5709 T _ZN5Caver22PurchaseViewController8LoadViewEv
002b56d1 T _ZN5Caver22PurchaseViewControllerC1Ev
002b56d1 T _ZN5Caver22PurchaseViewControllerC2Ev
0032274d T _ZN5Caver22RenderingProgramShader18AddUniformVariableEiRKSs
003226c1 T _ZN5Caver22RenderingProgramShaderC1EPNS_16RenderingContextERKSsNS_26RenderingProgramShaderTypeEPKc
003226c1 T _ZN5Caver22RenderingProgramShaderC2EPNS_16RenderingContextERKSsNS_26RenderingProgramShaderTypeEPKc
00322723 T _ZN5Caver22RenderingProgramShaderD1Ev
00322723 T _ZN5Caver22RenderingProgramShaderD2Ev
003133dd T _ZN5Caver22SetAndroidAssetManagerEP13AAssetManager
003136c5 T _ZN5Caver22TemporaryDirectoryPathEv
002f51d1 T _ZN5Caver23AndroidShowAchievementsEv
00312db9 T _ZN5Caver23BindBackgroundGLContextEv
001d5241 T _ZN5Caver23BlendAnimationComponent11GetBindingsEPSt6vectorINS_7BindingESaIS2_EE
001d5071 T _ZN5Caver23BlendAnimationComponent14ConnectOutletsEv
001d4f49 T _ZN5Caver23BlendAnimationComponent17InitWithComponentEPKS0_
001d5405 T _ZN5Caver23BlendAnimationComponent22ValueForBindedPropertyEi
001d4f89 T _ZN5Caver23BlendAnimationComponent23LoadFromProtobufMessageERKNS_5Proto9ComponentE
001d5521 T _ZN5Caver23BlendAnimationComponent25SetValueForBindedPropertyEiRKNS_12BindingValueE
001d53d9 T _ZN5Caver23BlendAnimationComponent30GetEnumValuesForBindedPropertyEiPSt6vectorINS_12BindingValueESaIS2_EE
001d4e79 T _ZN5Caver23BlendAnimationComponentC1Ev
001d4e79 T _ZN5Caver23BlendAnimationComponentC2Ev
0021ea05 T _ZN5Caver23BushControllerComponent11GetBindingsEPSt6vectorINS_7BindingESaIS2_EE
0021eb29 T _ZN5Caver23BushControllerComponent13HandleMessageEiPv
0021e8f5 T _ZN5Caver23BushControllerComponent17InitWithComponentEPKS0_
0021ea39 T _ZN5Caver23BushControllerComponent19PerformBindedActionEi
0021ea19 T _ZN5Caver23BushControllerComponent22ValueForBindedPropertyEi
0021e91d T _ZN5Caver23BushControllerComponent23LoadFromProtobufMessageERKNS_5Proto9ComponentE
0021ea2f T _ZN5Caver23BushControllerComponent25SetValueForBindedPropertyEiRKNS_12BindingValueE
0021ea0f T _ZN5Caver23BushControllerComponent30GetEnumValuesForBindedPropertyEiPSt6vectorINS_12BindingValueESaIS2_EE
0021eaad T _ZN5Caver23BushControllerComponent6UpdateEf
0021ea41 T _ZN5Caver23BushControllerComponent7PrepareEv
0021e731 T _ZN5Caver23BushControllerComponentC1Ev
0021e731 T _ZN5Caver23BushControllerComponentC2Ev
001f3c89 T _ZN5Caver23CharControllerComponent11DropQuicklyEv
001f2535 T _ZN5Caver23CharControllerComponent11GetBindingsEPSt6vectorINS_7BindingESaIS2_EE
001f3cfd T _ZN5Caver23CharControllerComponent11StopJumpingEv
001f4e41 T _ZN5Caver23CharControllerComponent12BeginCastingERKN5boost13intrusive_ptrINS_14SkillComponentEEE
001f43f5 T _ZN5Caver23CharControllerComponent12StartJumpingEv
001f4f89 T _ZN5Caver23CharControllerComponent13CancelCastingEv
001f4ec1 T _ZN5Caver23CharControllerComponent13FinishCastingEv
001f3dd1 T _ZN5Caver23CharControllerComponent13HandleMessageEiPv
001f4405 T _ZN5Caver23CharControllerComponent14CanDoSomethingEv
001f452d T _ZN5Caver23CharControllerComponent15CanBeginCastingEv
001f27ed T _ZN5Caver23CharControllerComponent15RegisterLibraryEv
001f36eb T _ZN5Caver23CharControllerComponent16SetWeaponsHiddenEb
001f1f5d T _ZN5Caver23CharControllerComponent17InitWithComponentEPKS0_
001f4085 T _ZN5Caver23CharControllerComponent17ResetAirJumpCountEv
001f3cb5 T _ZN5Caver23CharControllerComponent20DropWithoutAnimationEv
001f43dd T _ZN5Caver23CharControllerComponent21StopMovingToDirectionEi
001f4acd T _ZN5Caver23CharControllerComponent22PickupWithoutAnimationEv
001f4331 T _ZN5Caver23CharControllerComponent22StartMovingToDirectionEi
001f273d T _ZN5Caver23CharControllerComponent22ValueForBindedPropertyEi
001f2015 T _ZN5Caver23CharControllerComponent23LoadFromProtobufMessageERKNS_5Proto9ComponentE
001f2799 T _ZN5Caver23CharControllerComponent25SetValueForBindedPropertyEiRKNS_12BindingValueE
001f4d11 T _ZN5Caver23CharControllerComponent26TargetPickupObjectPositionEv
001f3d05 T _ZN5Caver23CharControllerComponent26UpdatePickupObjectPositionEv
001f2733 T _ZN5Caver23CharControllerComponent30GetEnumValuesForBindedPropertyEiPSt6vectorINS_12BindingValueESaIS2_EE
001f4609 T _ZN5Caver23CharControllerComponent34SetInitialAnimationControllerStateEv
001f41e1 T _ZN5Caver23CharControllerComponent3DieEv
001f465d T _ZN5Caver23CharControllerComponent3UseEv
001f408d T _ZN5Caver23CharControllerComponent4HurtEv
001f3755 T _ZN5Caver23CharControllerComponent5SwingEv
001f4461 T _ZN5Caver23CharControllerComponent6CanUseEv
001f4675 T _ZN5Caver23CharControllerComponent6PickupEPNS_11SceneObjectEb
001f285d T _ZN5Caver23CharControllerComponent6UpdateEf
001f4445 T _ZN5Caver23CharControllerComponent7CanJumpEv
001f27e7 T _ZN5Caver23CharControllerComponent7PrepareEv
001f3737 T _ZN5Caver23CharControllerComponent8CanSwingEv
001f44c9 T _ZN5Caver23CharControllerComponent9CanPickupEv
001f45c9 T _ZN5Caver23CharControllerComponent9StopSwingEv
001f16dd T _ZN5Caver23CharControllerComponentC1Ev
001f16dd T _ZN5Caver23CharControllerComponentC2Ev
0030e17d T _ZN5Caver23CircleIntersectsPolygonERKNS_6CircleERKNS_7Vector2EffRKNS_7PolygonES5_ffPS3_Pf
001d2bad T _ZN5Caver23CollisionShapeComponent10SetEnabledEb
001d2011 T _ZN5Caver23CollisionShapeComponent11GetBindingsEPSt6vectorINS_7BindingESaIS2_EE
001d2d51 T _ZN5Caver23CollisionShapeComponent12UpdateBoundsEv
001d30b1 T _ZN5Caver23CollisionShapeComponent13HandleMessageEiPv
001d2d0d T _ZN5Caver23CollisionShapeComponent14collisionShapeEv
001d2c11 T _ZN5Caver23CollisionShapeComponent15RegisterLibraryEv
001d2dad T _ZN5Caver23CollisionShapeComponent15SetUpdatedShapeERKNS_5ShapeE
001d3471 T _ZN5Caver23CollisionShapeComponent15UpdateWorldAABBEv
001d1c75 T _ZN5Caver23CollisionShapeComponent17InitWithComponentEPKS0_
001d2cb1 T _ZN5Caver23CollisionShapeComponent20UpdateCollisionShapeEv
001d2ee1 T _ZN5Caver23CollisionShapeComponent21SetDefaultShapeOfTypeENS_5Shape4TypeE
001d26e9 T _ZN5Caver23CollisionShapeComponent22ValueForBindedPropertyEi
001d1d55 T _ZN5Caver23CollisionShapeComponent23LoadFromProtobufMessageERKNS_5Proto9ComponentE
001d29b9 T _ZN5Caver23CollisionShapeComponent25SetValueForBindedPropertyEiRKNS_12BindingValueE
001d24c9 T _ZN5Caver23CollisionShapeComponent30GetEnumValuesForBindedPropertyEiPSt6vectorINS_12BindingValueESaIS2_EE
001d33b5 T _ZN5Caver23CollisionShapeComponent4DrawEPNS_16RenderingContextERKNS_7Matrix4E
001d2be5 T _ZN5Caver23CollisionShapeComponent7PrepareEv
001d2d21 T _ZN5Caver23CollisionShapeComponent8SetShapeERKNS_5ShapeE
001d1bb1 T _ZN5Caver23CollisionShapeComponentC1Ev
001d1bb1 T _ZN5Caver23CollisionShapeComponentC2Ev
0032105f T _ZN5Caver23ConvertFromFileBuffer16EPhi
00205785 T _ZN5Caver23DimensionSpellComponent11GetBindingsEPSt6vectorINS_7BindingESaIS2_EE
00205779 T _ZN5Caver23DimensionSpellComponent17InitWithComponentEPKS0_
002057b9 T _ZN5Caver23DimensionSpellComponent19PerformBindedActionEi
00205799 T _ZN5Caver23DimensionSpellComponent22ValueForBindedPropertyEi
0020577d T _ZN5Caver23DimensionSpellComponent23LoadFromProtobufMessageERKNS_5Proto9ComponentE
002057af T _ZN5Caver23DimensionSpellComponent25SetValueForBindedPropertyEiRKNS_12BindingValueE
0020578f T _ZN5Caver23DimensionSpellComponent30GetEnumValuesForBindedPropertyEiPSt6vectorINS_12BindingValueESaIS2_EE
002057c3 T _ZN5Caver23DimensionSpellComponent4CastEv
00205755 T _ZN5Caver23DimensionSpellComponentC1Ev
00205755 T _ZN5Caver23DimensionSpellComponentC2Ev
0021f381 T _ZN5Caver23DoorControllerComponent11GetBindingsEPSt6vectorINS_7BindingESaIS2_EE
0021f5a5 T _ZN5Caver23DoorControllerComponent15RegisterLibraryEv
0021f235 T _ZN5Caver23DoorControllerComponent17InitWithComponentEPKS0_
0021f4d7 T _ZN5Caver23DoorControllerComponent19PerformBindedActionEi
0021f6d5 T _ZN5Caver23DoorControllerComponent19SetCollisionEnabledEb
0021f42d T _ZN5Caver23DoorControllerComponent22ValueForBindedPropertyEi
0021f269 T _ZN5Caver23DoorControllerComponent23LoadFromProtobufMessageERKNS_5Proto9ComponentE
0021f451 T _ZN5Caver23DoorControllerComponent25SetValueForBindedPropertyEiRKNS_12BindingValueE
0021f423 T _ZN5Caver23DoorControllerComponent30GetEnumValuesForBindedPropertyEiPSt6vectorINS_12BindingValueESaIS2_EE
0021f615 T _ZN5Caver23DoorControllerComponent4OpenEv
0021f715 T _ZN5Caver23DoorControllerComponent5CloseEv
0021f7d3 T _ZN5Caver23DoorControllerComponent6UpdateEf
0021f4dd T _ZN5Caver23DoorControllerComponent7PrepareEv
0021f461 T _ZN5Caver23DoorControllerComponent7SetOpenEb
0021effd T _ZN5Caver23DoorControllerComponentC1Ev
0021effd T _ZN5Caver23DoorControllerComponentC2Ev
002df521 T _ZN5Caver23FountainParticleEmitter6UpdateEf
002df501 T _ZN5Caver23FountainParticleEmitterC1Ev
002df501 T _ZN5Caver23FountainParticleEmitterC2Ev
00303081 T _ZN5Caver23GUINavigationController10ResumeViewEv
0030308d T _ZN5Caver23GUINavigationController10UnloadViewEv
00303075 T _ZN5Caver23GUINavigationController11SuspendViewEv
00303715 T _ZN5Caver23GUINavigationController24SetCurrentViewControllerERKN5boost10shared_ptrINS_17GUIViewControllerEEE
003030bd T _ZN5Caver23GUINavigationController24ViewControllerViewLoadedEPNS_17GUIViewControllerE
003030b9 T _ZN5Caver23GUINavigationController26PresentModalViewControllerERKN5boost10shared_ptrINS_17GUIViewControllerEEE
00303279 T _ZN5Caver23GUINavigationController26TransitionToViewControllerERKN5boost10shared_ptrINS_17GUIViewControllerEEEffb
00303681 T _ZN5Caver23GUINavigationController32FinishTransitionToViewControllerERKN5boost10shared_ptrINS_17GUIViewControllerEEEPvPNS_8GUIEventE
00303099 T _ZN5Caver23GUINavigationController6UpdateEf
00302fb9 T _ZN5Caver23GUINavigationController8LoadViewEv
00302f91 T _ZN5Caver23GUINavigationControllerC1Ev
00302f91 T _ZN5Caver23GUINavigationControllerC2Ev
002087c5 T _ZN5Caver23MagicExplosionComponent11GetBindingsEPSt6vectorINS_7BindingESaIS2_EE
00208bcd T _ZN5Caver23MagicExplosionComponent12CasterObjectEv
00209061 T _ZN5Caver23MagicExplosionComponent13HandleMessageEiPv
00208bc7 T _ZN5Caver23MagicExplosionComponent15SetCasterObjectERKN5boost13intrusive_ptrINS_11SceneObjectEEE
00208ab5 T _ZN5Caver23MagicExplosionComponent17CreateStarPolygonEv
00208609 T _ZN5Caver23MagicExplosionComponent17InitWithComponentEPKS0_
00208d41 T _ZN5Caver23MagicExplosionComponent18ExplodeToDirectionERKNS_7Vector2Ef
002089eb T _ZN5Caver23MagicExplosionComponent19PerformBindedActionEi
0020945d T _ZN5Caver23MagicExplosionComponent22UpdateStarPolygonColorEv
0020891d T _ZN5Caver23MagicExplosionComponent22ValueForBindedPropertyEi
00208651 T _ZN5Caver23MagicExplosionComponent23LoadFromProtobufMessageERKNS_5Proto9ComponentE
0020895d T _ZN5Caver23MagicExplosionComponent25SetValueForBindedPropertyEiRKNS_12BindingValueE
00208913 T _ZN5Caver23MagicExplosionComponent30GetEnumValuesForBindedPropertyEiPSt6vectorINS_12BindingValueESaIS2_EE
00208d81 T _ZN5Caver23MagicExplosionComponent6UpdateEf
002089f1 T _ZN5Caver23MagicExplosionComponent7PrepareEv
00208bdd T _ZN5Caver23MagicExplosionComponent9SetDamageENS_10DamageTypeENS_17SpecialDamageTypeEif
002083ed T _ZN5Caver23MagicExplosionComponentC1Ev
002083ed T _ZN5Caver23MagicExplosionComponentC2Ev
0020b2f5 T _ZN5Caver23MagicSpellCastComponent11GetBindingsEPSt6vectorINS_7BindingESaIS2_EE
0020b623 T _ZN5Caver23MagicSpellCastComponent13HandleMessageEiPv
0020b215 T _ZN5Caver23MagicSpellCastComponent17InitWithComponentEPKS0_
0020b329 T _ZN5Caver23MagicSpellCastComponent19PerformBindedActionEi
0020b309 T _ZN5Caver23MagicSpellCastComponent22ValueForBindedPropertyEi
0020b239 T _ZN5Caver23MagicSpellCastComponent23LoadFromProtobufMessageERKNS_5Proto9ComponentE
0020b31f T _ZN5Caver23MagicSpellCastComponent25SetValueForBindedPropertyEiRKNS_12BindingValueE
0020b2ff T _ZN5Caver23MagicSpellCastComponent30GetEnumValuesForBindedPropertyEiPSt6vectorINS_12BindingValueESaIS2_EE
0020b339 T _ZN5Caver23MagicSpellCastComponent6UpdateEf
0020b32d T _ZN5Caver23MagicSpellCastComponent7PrepareEv
0020b0ad T _ZN5Caver23MagicSpellCastComponentC1Ev
0020b0ad T _ZN5Caver23MagicSpellCastComponentC2Ev
0020b85d T _ZN5Caver23ObjectModifierComponent11GetBindingsEPSt6vectorINS_7BindingESaIS2_EE
0020b9d9 T _ZN5Caver23ObjectModifierComponent13ApplyModifierENS_18ObjectModifierTypeEff
0020b849 T _ZN5Caver23ObjectModifierComponent17InitWithComponentEPKS0_
0020b891 T _ZN5Caver23ObjectModifierComponent19PerformBindedActionEi
0020b871 T _ZN5Caver23ObjectModifierComponent22ValueForBindedPropertyEi
0020b855 T _ZN5Caver23ObjectModifierComponent23LoadFromProtobufMessageERKNS_5Proto9ComponentE
0020b887 T _ZN5Caver23ObjectModifierComponent25SetValueForBindedPropertyEiRKNS_12BindingValueE
0020b867 T _ZN5Caver23ObjectModifierComponent30GetEnumValuesForBindedPropertyEiPSt6vectorINS_12BindingValueESaIS2_EE
0020b8b9 T _ZN5Caver23ObjectModifierComponent6UpdateEf
0020b895 T _ZN5Caver23ObjectModifierComponent7PrepareEv
0020b7dd T _ZN5Caver23ObjectModifierComponentC1Ev
0020b7dd T _ZN5Caver23ObjectModifierComponentC2Ev
0028d6f1 T _ZN5Caver23OfflineAchievementsView10AnimateOutEv
0028d1e9 T _ZN5Caver23OfflineAchievementsView14LayoutSubviewsEv
0028d951 T _ZN5Caver23OfflineAchievementsView19HandleKeyboardEventERKNS_16GUIKeyboardEventE
0028d1cb T _ZN5Caver23OfflineAchievementsView31SetGoogleServicesButtonsVisibleEb
0028d4a1 T _ZN5Caver23OfflineAchievementsView9AnimateInEv
0028c3e1 T _ZN5Caver23OfflineAchievementsViewC1ERKN5boost10shared_ptrINS_13PlayerProfileEEE
0028c3e1 T _ZN5Caver23OfflineAchievementsViewC2ERKN5boost10shared_ptrINS_13PlayerProfileEEE
0021c1a5 T _ZN5Caver23ParticleObjectComponent11GetBindingsEPSt6vectorINS_7BindingESaIS2_EE
0021c351 T _ZN5Caver23ParticleObjectComponent13HandleMessageEiPv
0021c0f5 T _ZN5Caver23ParticleObjectComponent17InitWithComponentEPKS0_
0021c1d9 T _ZN5Caver23ParticleObjectComponent19PerformBindedActionEi
0021c337 T _ZN5Caver23ParticleObjectComponent21HandleGroundCollisionERKNS_20CollisionMessageDataE
0021c1b9 T _ZN5Caver23ParticleObjectComponent22ValueForBindedPropertyEi
0021c115 T _ZN5Caver23ParticleObjectComponent23LoadFromProtobufMessageERKNS_5Proto9ComponentE
0021c1cf T _ZN5Caver23ParticleObjectComponent25SetValueForBindedPropertyEiRKNS_12BindingValueE
0021c1af T _ZN5Caver23ParticleObjectComponent30GetEnumValuesForBindedPropertyEiPSt6vectorINS_12BindingValueESaIS2_EE
0021c289 T _ZN5Caver23ParticleObjectComponent6UpdateEf
0021c1dd T _ZN5Caver23ParticleObjectComponent7PrepareEv
0021bfd9 T _ZN5Caver23ParticleObjectComponentC1Ev
0021bfd9 T _ZN5Caver23ParticleObjectComponentC2Ev
0031795b T _ZN5Caver23StoreController_Android12GetStoreNameEv
00317e97 T _ZN5Caver23StoreController_Android14CheckPromotionERKSs
00317c99 T _ZN5Caver23StoreController_Android15PurchaseProductERKN5boost10shared_ptrINS_12StoreProductEEENS_12TargetActionIFvRKSsbS9_EEE
00317e9d T _ZN5Caver23StoreController_Android18HandleProductFetchERKSsRKN5boost10shared_ptrINS_12StoreProductEEES2_
00317965 T _ZN5Caver23StoreController_Android18IsProductPurchasedERKSs
003180e9 T _ZN5Caver23StoreController_Android21HandleProductPurchaseERKSsbS2_
00318349 T _ZN5Caver23StoreController_Android25ResetHasRestoredPurchasesEv
00318351 T _ZN5Caver23StoreController_Android25StartedRestoringPurchasesEv
00317e93 T _ZN5Caver23StoreController_Android26ConsumePurchasesForTestingEv
00317985 T _ZN5Caver23StoreController_Android26FetchProductWithIdentifierERKSsNS_12TargetActionIFvS2_RKN5boost10shared_ptrINS_12StoreProductEEES2_EEE
00318371 T _ZN5Caver23StoreController_Android26FinishedRestoringPurchasesEv
00317aed T _ZN5Caver23StoreController_Android28FetchProductsWithIdentifiersERKSt6vectorISsSaISsEENS_12TargetActionIFvRKSsRKN5boost10shared_ptrINS_12StoreProductEEES8_EEE
00317e91 T _ZN5Caver23StoreController_Android28RestoreCompletedTransactionsENS_12TargetActionIFvRKSt6vectorISsSaISsEERKSsEEE
00317851 T _ZN5Caver23StoreController_AndroidC1Ev
00317851 T _ZN5Caver23StoreController_AndroidC2Ev
00317939 T _ZN5Caver23StoreController_AndroidD0Ev
003178ad T _ZN5Caver23StoreController_AndroidD1Ev
003178ad T _ZN5Caver23StoreController_AndroidD2Ev
001e3cb5 T _ZN5Caver23TextureMappingComponent11GetBindingsEPSt6vectorINS_7BindingESaIS2_EE
001e3ad9 T _ZN5Caver23TextureMappingComponent17InitWithComponentEPKS0_
001e3e4d T _ZN5Caver23TextureMappingComponent22ValueForBindedPropertyEi
001e3b0d T _ZN5Caver23TextureMappingComponent23LoadFromProtobufMessageERKNS_5Proto9ComponentE
001e3e91 T _ZN5Caver23TextureMappingComponent25SetValueForBindedPropertyEiRKNS_12BindingValueE
001e3c25 T _ZN5Caver23TextureMappingComponent7PrepareEv
001e3a6d T _ZN5Caver23TextureMappingComponentC1Ev
001e3a6d T _ZN5Caver23TextureMappingComponentC2Ev
002f4d01 T _ZN5Caver24AndroidHasPrivacyConsentEv
002f50a9 T _ZN5Caver24AndroidPrepareReviewFlowEv
002f48c5 T _ZN5Caver24AndroidProcessStoreQueueEv
001efbed T _ZN5Caver24BreakableObjectComponent10FlashModelERKNS_5ColorEf
001ef541 T _ZN5Caver24BreakableObjectComponent11GetBindingsEPSt6vectorINS_7BindingESaIS2_EE
001efc51 T _ZN5Caver24BreakableObjectComponent13HandleMessageEiPv
001ef401 T _ZN5Caver24BreakableObjectComponent17InitWithComponentEPKS0_
001ef977 T _ZN5Caver24BreakableObjectComponent19PerformBindedActionEi
001ef7e1 T _ZN5Caver24BreakableObjectComponent22ValueForBindedPropertyEi
001ef451 T _ZN5Caver24BreakableObjectComponent23LoadFromProtobufMessageERKNS_5Proto9ComponentE
001ef8a9 T _ZN5Caver24BreakableObjectComponent25SetValueForBindedPropertyEiRKNS_12BindingValueE
001ef6e9 T _ZN5Caver24BreakableObjectComponent30GetEnumValuesForBindedPropertyEiPSt6vectorINS_12BindingValueESaIS2_EE
001ef97d T _ZN5Caver24BreakableObjectComponent5BreakEv
001efb75 T _ZN5Caver24BreakableObjectComponent6UpdateEf
001ef391 T _ZN5Caver24BreakableObjectComponentC1Ev
001ef391 T _ZN5Caver24BreakableObjectComponentC2Ev
001f5f7d T _ZN5Caver24CollectableItemComponent11GetBindingsEPSt6vectorINS_7BindingESaIS2_EE
001f6459 T _ZN5Caver24CollectableItemComponent15RegisterLibraryEv
001f64f9 T _ZN5Caver24CollectableItemComponent16HandleCollectionEv
001f5da5 T _ZN5Caver24CollectableItemComponent17InitWithComponentEPKS0_
001f6437 T _ZN5Caver24CollectableItemComponent19PerformBindedActionEi
001f62b1 T _ZN5Caver24CollectableItemComponent22ValueForBindedPropertyEi
001f5e0d T _ZN5Caver24CollectableItemComponent23LoadFromProtobufMessageERKNS_5Proto9ComponentE
001f6315 T _ZN5Caver24CollectableItemComponent25SetValueForBindedPropertyEiRKNS_12BindingValueE
001f61c9 T _ZN5Caver24CollectableItemComponent30GetEnumValuesForBindedPropertyEiPSt6vectorINS_12BindingValueESaIS2_EE
001f643b T _ZN5Caver24CollectableItemComponent7PrepareEv
001f5d35 T _ZN5Caver24CollectableItemComponentC1Ev
001f5d35 T _ZN5Caver24CollectableItemComponentC2Ev
002054e9 T _ZN5Caver24DimensionObjectComponent11GetBindingsEPSt6vectorINS_7BindingESaIS2_EE
002054d5 T _ZN5Caver24DimensionObjectComponent17InitWithComponentEPKS0_
0020551d T _ZN5Caver24DimensionObjectComponent19PerformBindedActionEi
002054fd T _ZN5Caver24DimensionObjectComponent22ValueForBindedPropertyEi
002054e1 T _ZN5Caver24DimensionObjectComponent23LoadFromProtobufMessageERKNS_5Proto9ComponentE
00205513 T _ZN5Caver24DimensionObjectComponent25SetValueForBindedPropertyEiRKNS_12BindingValueE
002054f3 T _ZN5Caver24DimensionObjectComponent30GetEnumValuesForBindedPropertyEiPSt6vectorINS_12BindingValueESaIS2_EE
00205521 T _ZN5Caver24DimensionObjectComponent7PrepareEv
00205485 T _ZN5Caver24DimensionObjectComponentC1Ev
00205485 T _ZN5Caver24DimensionObjectComponentC2Ev
002de175 T _ZN5Caver24MeshValueTypeFromPODTypeE13EPVRTDataType
00316615 T _ZN5Caver24OnlineController_Android10EnteredAgeEi
0031660d T _ZN5Caver24OnlineController_Android10IsAgeKnownEv
00316759 T _ZN5Caver24OnlineController_Android11ReportScoreERKSsxS2_
003165ad T _ZN5Caver24OnlineController_Android13LaunchTwitterEv
0031668b T _ZN5Caver24OnlineController_Android14GetAnalyticsIdEv
00316611 T _ZN5Caver24OnlineController_Android14IsAgeOfConsentEv
0031654d T _ZN5Caver24OnlineController_Android14LaunchFacebookEv
003166a5 T _ZN5Caver24OnlineController_Android15StartReviewFlowEv
0031667d T _ZN5Caver24OnlineController_Android17HasPrivacyConsentEv
0031661d T _ZN5Caver24OnlineController_Android17OpenPrivacyPolicyEv
003166a1 T _ZN5Caver24OnlineController_Android17PrepareReviewFlowEv
00316545 T _ZN5Caver24OnlineController_Android18LaunchAchievementsEv
00316549 T _ZN5Caver24OnlineController_Android18LaunchLeaderboardsEv
00316aad T _ZN5Caver24OnlineController_Android18ShowInterstitialAdERKSsif
0031653d T _ZN5Caver24OnlineController_Android19AchievementsEnabledEv
00316541 T _ZN5Caver24OnlineController_Android19LeaderboardsEnabledEv
00316695 T _ZN5Caver24OnlineController_Android20ShowAnalyticsIdPopupEv
00316687 T _ZN5Caver24OnlineController_Android20StartAdsAndAnalyticsEv
00316681 T _ZN5Caver24OnlineController_Android22ReceivedPrivacyConsentEb
0031677b T _ZN5Caver24OnlineController_Android22SignInToGoogleServicesEv
00316699 T _ZN5Caver24OnlineController_Android23GetPlatformConsentStateEv
0031675b T _ZN5Caver24OnlineController_Android23GoogleServicesAvailableEv
0031675f T _ZN5Caver24OnlineController_Android24SignedInToGoogleServicesEv
003166a9 T _ZN5Caver24OnlineController_Android25ReportAchievementProgressERKN5boost10shared_ptrINS_11AchievementEEEd
0031669d T _ZN5Caver24OnlineController_Android26ShowPlatformConsentOptionsEv
00316781 T _ZN5Caver24OnlineController_Android27HandleGoogleSignInCompletedEb
00316763 T _ZN5Caver24OnlineController_Android30AddGoogleServicesSignInHandlerENS_12TargetActionIFvbRKSsEEE
003164b9 T _ZN5Caver24OnlineController_AndroidC1Ev
003164b9 T _ZN5Caver24OnlineController_AndroidC2Ev
00316505 T _ZN5Caver24OnlineController_AndroidD0Ev
003164e1 T _ZN5Caver24OnlineController_AndroidD1Ev
003164e1 T _ZN5Caver24OnlineController_AndroidD2Ev
00295295 T _ZN5Caver24OnlineMenuViewController13ButtonPressedEPvPNS_8GUIEventE
002952b1 T _ZN5Caver24OnlineMenuViewController13ViewDidAppearEv
00295045 T _ZN5Caver24OnlineMenuViewController8LoadViewEv
00324335 T _ZN5Caver24OpenAAssetFileDescriptorERKSs
002183a5 T _ZN5Caver24OrbitControllerComponent11GetBindingsEPSt6vectorINS_7BindingESaIS2_EE
00218a99 T _ZN5Caver24OrbitControllerComponent12FollowObjectERKN5boost13intrusive_ptrINS_11SceneObjectEEE
0021829d T _ZN5Caver24OrbitControllerComponent17InitWithComponentEPKS0_
002185ef T _ZN5Caver24OrbitControllerComponent19PerformBindedActionEi
00218501 T _ZN5Caver24OrbitControllerComponent22ValueForBindedPropertyEi
002182cd T _ZN5Caver24OrbitControllerComponent23LoadFromProtobufMessageERKNS_5Proto9ComponentE
0021854d T _ZN5Caver24OrbitControllerComponent25SetValueForBindedPropertyEiRKNS_12BindingValueE
002184f7 T _ZN5Caver24OrbitControllerComponent30GetEnumValuesForBindedPropertyEiPSt6vectorINS_12BindingValueESaIS2_EE
00218739 T _ZN5Caver24OrbitControllerComponent6UpdateEf
002185f9 T _ZN5Caver24OrbitControllerComponent7PrepareEv
00218225 T _ZN5Caver24OrbitControllerComponentC1Ev
00218225 T _ZN5Caver24OrbitControllerComponentC2Ev
0021acf5 T _ZN5Caver24ParticleEmitterComponent10SetEmitterERKN5boost10shared_ptrINS_15ParticleEmitterEEE
0021b285 T _ZN5Caver24ParticleEmitterComponent11AddParticleEiRKNS_7Vector3ES3_fRKNS_5ColorEf
0021b325 T _ZN5Caver24ParticleEmitterComponent11AddParticleERKNS_8ParticleE
00219efd T _ZN5Caver24ParticleEmitterComponent11GetBindingsEPSt6vectorINS_7BindingESaIS2_EE
0021b425 T _ZN5Caver24ParticleEmitterComponent12StopEmittingEv
0021b41d T _ZN5Caver24ParticleEmitterComponent13StartEmittingEv
0021af79 T _ZN5Caver24ParticleEmitterComponent14PrepareEmitterERKN5boost10shared_ptrINS_15ParticleEmitterEEE
0021af09 T _ZN5Caver24ParticleEmitterComponent15RegisterLibraryEv
00219a01 T _ZN5Caver24ParticleEmitterComponent17InitWithComponentEPKS0_
0021b385 T _ZN5Caver24ParticleEmitterComponent18RandomParticleTypeEv
0021adc9 T _ZN5Caver24ParticleEmitterComponent19PerformBindedActionEi
0021abe5 T _ZN5Caver24ParticleEmitterComponent20UpdateLocalTransformEv
0021a6fd T _ZN5Caver24ParticleEmitterComponent22ValueForBindedPropertyEi
00219b51 T _ZN5Caver24ParticleEmitterComponent23LoadFromProtobufMessageERKNS_5Proto9ComponentE
0021a935 T _ZN5Caver24ParticleEmitterComponent25SetValueForBindedPropertyEiRKNS_12BindingValueE
0021a4e9 T _ZN5Caver24ParticleEmitterComponent30GetEnumValuesForBindedPropertyEiPSt6vectorINS_12BindingValueESaIS2_EE
0021b42d T _ZN5Caver24ParticleEmitterComponent4DrawEPNS_16RenderingContextERKNS_7Matrix4ERKNS_7Vector3ES8_
0021b031 T _ZN5Caver24ParticleEmitterComponent6UpdateEf
0021adcd T _ZN5Caver24ParticleEmitterComponent7PrepareEv
0021ad1d T _ZN5Caver24ParticleEmitterComponent8SetColorERKNS_10FloatColorE
002194ed T _ZN5Caver24ParticleEmitterComponentC1Ev
002194ed T _ZN5Caver24ParticleEmitterComponentC2Ev
002199dd T _ZN5Caver24ParticleEmitterComponentD0Ev
0021980d T _ZN5Caver24ParticleEmitterComponentD1Ev
0021980d T _ZN5Caver24ParticleEmitterComponentD2Ev
00204dc5 T _ZN5Caver24PhysicsPlatformComponent11GetBindingsEPSt6vectorINS_7BindingESaIS2_EE
00205305 T _ZN5Caver24PhysicsPlatformComponent13HandleMessageEiPv
00204cfd T _ZN5Caver24PhysicsPlatformComponent17InitWithComponentEPKS0_
0020500f T _ZN5Caver24PhysicsPlatformComponent19PerformBindedActionEi
002051d1 T _ZN5Caver24PhysicsPlatformComponent21HandleObjectCollisionERKNS_20CollisionMessageDataE
00204f75 T _ZN5Caver24PhysicsPlatformComponent22ValueForBindedPropertyEi
00204d29 T _ZN5Caver24PhysicsPlatformComponent23LoadFromProtobufMessageERKNS_5Proto9ComponentE
00204fc9 T _ZN5Caver24PhysicsPlatformComponent25SetValueForBindedPropertyEiRKNS_12BindingValueE
00204f6b T _ZN5Caver24PhysicsPlatformComponent30GetEnumValuesForBindedPropertyEiPSt6vectorINS_12BindingValueESaIS2_EE
00205025 T _ZN5Caver24PhysicsPlatformComponent6UpdateEf
00205013 T _ZN5Caver24PhysicsPlatformComponent7PrepareEv
00204c7d T _ZN5Caver24PhysicsPlatformComponentC1Ev
00204c7d T _ZN5Caver24PhysicsPlatformComponentC2Ev
00220945 T _ZN5Caver24PressureTriggerComponent11GetBindingsEPSt6vectorINS_7BindingESaIS2_EE
00220df5 T _ZN5Caver24PressureTriggerComponent13HandleMessageEiPv
002207b1 T _ZN5Caver24PressureTriggerComponent17InitWithComponentEPKS0_
00220c5b T _ZN5Caver24PressureTriggerComponent19PerformBindedActionEi
00220af5 T _ZN5Caver24PressureTriggerComponent22ValueForBindedPropertyEi
00220821 T _ZN5Caver24PressureTriggerComponent23LoadFromProtobufMessageERKNS_5Proto9ComponentE
00220b39 T _ZN5Caver24PressureTriggerComponent25SetValueForBindedPropertyEiRKNS_12BindingValueE
00220aeb T _ZN5Caver24PressureTriggerComponent30GetEnumValuesForBindedPropertyEiPSt6vectorINS_12BindingValueESaIS2_EE
00220c6d T _ZN5Caver24PressureTriggerComponent6UpdateEf
00220c5f T _ZN5Caver24PressureTriggerComponent7PrepareEv
00220725 T _ZN5Caver24PressureTriggerComponentC1Ev
00220725 T _ZN5Caver24PressureTriggerComponentC2Ev
0030eef1 T _ZN5Caver24RectIntersectsWith1DLineEffffPfS0_
0022932d T _ZN5Caver24SwingableWeaponComponent10StartSwingEiff
002288e1 T _ZN5Caver24SwingableWeaponComponent11GetBindingsEPSt6vectorINS_7BindingESaIS2_EE
00228d01 T _ZN5Caver24SwingableWeaponComponent12SetGlowColorENS_10FloatColorE
00229a01 T _ZN5Caver24SwingableWeaponComponent13HandleMessageEiPv
0022905d T _ZN5Caver24SwingableWeaponComponent13SetControllerEPNS_34SwingableWeaponControllerComponentE
00228f11 T _ZN5Caver24SwingableWeaponComponent15UpdateTransformERKNS_7Matrix4E
00229061 T _ZN5Caver24SwingableWeaponComponent16CreateGlowObjectEv
00228ed1 T _ZN5Caver24SwingableWeaponComponent16SetDamageEnabledEb
00228c49 T _ZN5Caver24SwingableWeaponComponent16SetGlowIntensityEf
00229929 T _ZN5Caver24SwingableWeaponComponent17CurrentSwingPlaneEv
002284c9 T _ZN5Caver24SwingableWeaponComponent17InitWithComponentEPKS0_
00228ae9 T _ZN5Caver24SwingableWeaponComponent22ValueForBindedPropertyEi
002285d5 T _ZN5Caver24SwingableWeaponComponent23LoadFromProtobufMessageERKNS_5Proto9ComponentE
00228b41 T _ZN5Caver24SwingableWeaponComponent25SetValueForBindedPropertyEiRKNS_12BindingValueE
00228adf T _ZN5Caver24SwingableWeaponComponent30GetEnumValuesForBindedPropertyEiPSt6vectorINS_12BindingValueESaIS2_EE
0022948d T _ZN5Caver24SwingableWeaponComponent6UpdateEf
00228d89 T _ZN5Caver24SwingableWeaponComponent7PrepareEv
0022943d T _ZN5Caver24SwingableWeaponComponent9StopSwingEv
0022805d T _ZN5Caver24SwingableWeaponComponentC1Ev
0022805d T _ZN5Caver24SwingableWeaponComponentC2Ev
0031f89b T _ZN5Caver24TextureSizeSortPredicateEPKNS_7TextureES2_
002f5411 T _ZN5Caver25AndroidLoadInterstitialAdEv
002f54c1 T _ZN5Caver25AndroidShowInterstitialAdEd
0030e5e1 T _ZN5Caver25CircleIntersectsRectangleERKNS_6CircleERKNS_7Vector2EffRKNS_9RectangleES5_ffPS3_Pf
001fa2f9 T _ZN5Caver25EntityControllerComponent10RoamUpdateEf
001f9a51 T _ZN5Caver25EntityControllerComponent11GetBindingsEPSt6vectorINS_7BindingESaIS2_EE
001fa16d T _ZN5Caver25EntityControllerComponent12SetMoveSpeedEf
001faa41 T _ZN5Caver25EntityControllerComponent13HandleMessageEiPv
001fa223 T _ZN5Caver25EntityControllerComponent13MoveDirectionEv
001fab25 T _ZN5Caver25EntityControllerComponent13PerformActionERKN5boost13intrusive_ptrINS_21EntityActionComponentEEE
001fa203 T _ZN5Caver25EntityControllerComponent15FacingDirectionEv
001f9f3d T _ZN5Caver25EntityControllerComponent15RegisterLibraryEv
001fa1d9 T _ZN5Caver25EntityControllerComponent15SetAccelerationEf
001fab71 T _ZN5Caver25EntityControllerComponent15SetTargetObjectERKN5boost13intrusive_ptrINS_11SceneObjectEEE
001f9fad T _ZN5Caver25EntityControllerComponent16SetMoveAnimationERKN5boost13intrusive_ptrINS_12AnimKeysNodeEEE
001fa389 T _ZN5Caver25EntityControllerComponent16SetMoveDirectionEi
001f9795 T _ZN5Caver25EntityControllerComponent17InitWithComponentEPKS0_
001fa3f5 T _ZN5Caver25EntityControllerComponent18SetFacingDirectionEi
001f9dfb T _ZN5Caver25EntityControllerComponent19PerformBindedActionEi
001f9cf1 T _ZN5Caver25EntityControllerComponent22ValueForBindedPropertyEi
001f97dd T _ZN5Caver25EntityControllerComponent23LoadFromProtobufMessageERKNS_5Proto9ComponentE
001faac5 T _ZN5Caver25EntityControllerComponent24UpdateMoveAnimationSpeedEv
001f9dbd T _ZN5Caver25EntityControllerComponent25SetValueForBindedPropertyEiRKNS_12BindingValueE
001faa0d T _ZN5Caver25EntityControllerComponent26SetMoveDirectionAfterDelayEif
001faafd T _ZN5Caver25EntityControllerComponent26ShouldReverseMoveAnimationEv
001fa9e1 T _ZN5Caver25EntityControllerComponent28SetFacingDirectionAfterDelayEif
001f9bf9 T _ZN5Caver25EntityControllerComponent30GetEnumValuesForBindedPropertyEiPSt6vectorINS_12BindingValueESaIS2_EE
001fa451 T _ZN5Caver25EntityControllerComponent6UpdateEf
001f9e01 T _ZN5Caver25EntityControllerComponent7PrepareEv
001f9499 T _ZN5Caver25EntityControllerComponentC1Ev
001f9499 T _ZN5Caver25EntityControllerComponentC2Ev
00313b71 T _ZN5Caver25PathForDocumentsDirectoryERKSsb
0029b711 T _ZN5Caver25ProfileManagerLoadingView14LayoutSubviewsEv
0029b871 T _ZN5Caver25ProfileManagerLoadingView6UpdateEf
0029b4e1 T _ZN5Caver25ProfileManagerLoadingViewC1Ev
0029b4e1 T _ZN5Caver25ProfileManagerLoadingViewC2Ev
002fb1f9 T _ZN5Caver25SaveProtobufMessageToFileERKN6google8protobuf11MessageLiteERKSs
002878b3 T _ZN5Caver25SkillPickerViewController25SkillPickerViewDidDismissEPNS_15SkillPickerViewE
002877e1 T _ZN5Caver25SkillPickerViewController29SkillPickerViewDidSelectSkillEPNS_15SkillPickerViewERKN5boost10shared_ptrINS_5SkillEEE
00287695 T _ZN5Caver25SkillPickerViewController8LoadViewEv
00287671 T _ZN5Caver25SkillPickerViewControllerC1Ev
00287671 T _ZN5Caver25SkillPickerViewControllerC2Ev
002f42b9 T _ZN5Caver25StopTextInputWithDelegateEPNS_18ITextInputDelegateE
001f9981 T _ZN5Caver25StringForMovementBehaviorENS_25EntityControllerComponent16MovementBehaviorE
00312dbb T _ZN5Caver25UnbindBackgroundGLContextEv
002fb581 T _ZN5Caver26ImageTypeFromProtobufValueENS_5Proto9ImageTypeE
001d5ba9 T _ZN5Caver26KeyframeAnimationComponent11GetBindingsEPSt6vectorINS_7BindingESaIS2_EE
001d5955 T _ZN5Caver26KeyframeAnimationComponent13LoadAnimationEv
001d5a25 T _ZN5Caver26KeyframeAnimationComponent15RegisterLibraryEv
001d5923 T _ZN5Caver26KeyframeAnimationComponent17InitWithAnimationERKN5boost10shared_ptrIKNS_17KeyframeAnimationEEE
001d58b9 T _ZN5Caver26KeyframeAnimationComponent17InitWithComponentEPKS0_
001d5e01 T _ZN5Caver26KeyframeAnimationComponent22ValueForBindedPropertyEi
001d5a95 T _ZN5Caver26KeyframeAnimationComponent23LoadFromProtobufMessageERKNS_5Proto9ComponentE
001d5f7d T _ZN5Caver26KeyframeAnimationComponent25SetValueForBindedPropertyEiRKNS_12BindingValueE
001d5df7 T _ZN5Caver26KeyframeAnimationComponent30GetEnumValuesForBindedPropertyEiPSt6vectorINS_12BindingValueESaIS2_EE
001d59fd T _ZN5Caver26KeyframeAnimationComponent7PrepareEv
001d5755 T _ZN5Caver26KeyframeAnimationComponentC1Ev
001d5755 T _ZN5Caver26KeyframeAnimationComponentC2Ev
00212629 T _ZN5Caver26MonsterControllerComponent11GetBindingsEPSt6vectorINS_7BindingESaIS2_EE
002127a5 T _ZN5Caver26MonsterControllerComponent16FindNearestEnemyEv
0021271d T _ZN5Caver26MonsterControllerComponent16UpdateRoamBoundsEv
00212515 T _ZN5Caver26MonsterControllerComponent17InitWithComponentEPKS0_
00212715 T _ZN5Caver26MonsterControllerComponent19PerformBindedActionEi
002126d1 T _ZN5Caver26MonsterControllerComponent22ValueForBindedPropertyEi
00212541 T _ZN5Caver26MonsterControllerComponent23LoadFromProtobufMessageERKNS_5Proto9ComponentE
002126f3 T _ZN5Caver26MonsterControllerComponent25SetValueForBindedPropertyEiRKNS_12BindingValueE
002126c7 T _ZN5Caver26MonsterControllerComponent30GetEnumValuesForBindedPropertyEiPSt6vectorINS_12BindingValueESaIS2_EE
002127dd T _ZN5Caver26MonsterControllerComponent6UpdateEf
00212719 T _ZN5Caver26MonsterControllerComponent7PrepareEv
00212339 T _ZN5Caver26MonsterControllerComponentC1Ev
00212339 T _ZN5Caver26MonsterControllerComponentC2Ev
001f9a09 T _ZN5Caver26MovementBehaviourForStringERKSs
002fb58b T _ZN5Caver26ProtobufValueFromImageTypeENS_9ImageTypeE
0030db79 T _ZN5Caver26RectangleIntersectsPolygonERKNS_9RectangleERKNS_7Vector2EffRKNS_7PolygonES5_ffPS3_PfS5_
002f41f9 T _ZN5Caver26StartTextInputWithDelegateEPNS_18ITextInputDelegateERKSs
001f6cd5 T _ZN5Caver26StringForSpecialDamageTypeENS_17SpecialDamageTypeE
00288229 T _ZN5Caver27AchievementNotificationView12UpdateLayoutEv
00288455 T _ZN5Caver27AchievementNotificationView13PresentInViewEPNS_7GUIViewE
00288223 T _ZN5Caver27AchievementNotificationView14LayoutSubviewsEv
00287ff9 T _ZN5Caver27AchievementNotificationView14SetAchievementERKN5boost10shared_ptrINS_11AchievementEEE
002887e9 T _ZN5Caver27AchievementNotificationView18AnimationDidFinishEPvPNS_8GUIEventE
00288881 T _ZN5Caver27AchievementNotificationView20AnimateOutAfterDelayEf
0028844d T _ZN5Caver27AchievementNotificationView6UpdateEf
00288451 T _ZN5Caver27AchievementNotificationView8DrawRectEPNS_16RenderingContextERKNS_9RectangleERKNS_7Matrix4E
00288589 T _ZN5Caver27AchievementNotificationView9AnimateInEv
00287a35 T _ZN5Caver27AchievementNotificationViewC1Ev
00287a35 T _ZN5Caver27AchievementNotificationViewC2Ev
002f5189 T _ZN5Caver27AndroidInitiateGoogleSignInEv
002f490d T _ZN5Caver27AndroidPurchaseStoreProductERKSs
002f4f05 T _ZN5Caver27AndroidShowAnalyticsIdPopupEv
002f4e31 T _ZN5Caver27AndroidStartAdsAndAnalyticsEv
003219d9 T _ZN5Caver27BytesPerPixelForPixelFormatENS_11PixelFormatE
001f0ec1 T _ZN5Caver27CharAnimControllerComponent10StopActionEv
001f09c9 T _ZN5Caver27CharAnimControllerComponent10StopMovingEv
001f0419 T _ZN5Caver27CharAnimControllerComponent11GetBindingsEPSt6vectorINS_7BindingESaIS2_EE
001f098b T _ZN5Caver27CharAnimControllerComponent11StartMovingEv
001f0cb5 T _ZN5Caver27CharAnimControllerComponent12BeginCastingEv
001f0b81 T _ZN5Caver27CharAnimControllerComponent12StartFallingEv
001f09f5 T _ZN5Caver27CharAnimControllerComponent12StartJumpingEb
001f0dc5 T _ZN5Caver27CharAnimControllerComponent13FinishCastingERKN5boost13intrusive_ptrINS_12AnimKeysNodeEEE
001f0bc1 T _ZN5Caver27CharAnimControllerComponent13IsReadyToJumpEv
001f0bb3 T _ZN5Caver27CharAnimControllerComponent13StandOnGroundEv
001f0b21 T _ZN5Caver27CharAnimControllerComponent15CanStartFallingEv
001f0231 T _ZN5Caver27CharAnimControllerComponent17InitWithComponentEPKS0_
001f0941 T _ZN5Caver27CharAnimControllerComponent18SetCurrentRunSpeedEf
001f0be9 T _ZN5Caver27CharAnimControllerComponent18SwingWithAnimationERKN5boost13intrusive_ptrINS_12AnimKeysNodeEEE
001f0749 T _ZN5Caver27CharAnimControllerComponent20ActionNearlyFinishedEv
001f1101 T _ZN5Caver27CharAnimControllerComponent20BlendToAnimationNodeERKN5boost13intrusive_ptrINS_8AnimNodeEEEf
001f11c9 T _ZN5Caver27CharAnimControllerComponent20BlendToMoveAnimationEf
001f0f75 T _ZN5Caver27CharAnimControllerComponent22BlendFromAnimationNodeERKN5boost13intrusive_ptrINS_12AnimKeysNodeEEEf
001f042d T _ZN5Caver27CharAnimControllerComponent22ValueForBindedPropertyEi
001f0265 T _ZN5Caver27CharAnimControllerComponent23LoadFromProtobufMessageERKNS_5Proto9ComponentE
001f0443 T _ZN5Caver27CharAnimControllerComponent25SetValueForBindedPropertyEiRKNS_12BindingValueE
001f0423 T _ZN5Caver27CharAnimControllerComponent30GetEnumValuesForBindedPropertyEiPSt6vectorINS_12BindingValueESaIS2_EE
001f072d T _ZN5Caver27CharAnimControllerComponent5ResetEv
001f0771 T _ZN5Caver27CharAnimControllerComponent6UpdateEf
001f044d T _ZN5Caver27CharAnimControllerComponent7PrepareEv
001f0975 T _ZN5Caver27CharAnimControllerComponent8IsMovingEv
001efeed T _ZN5Caver27CharAnimControllerComponentC1Ev
001efeed T _ZN5Caver27CharAnimControllerComponentC2Ev
0022d0b1 T _ZN5Caver27DamageTypeFromProtobufValueENS_5Proto10DamageTypeE
0021fc89 T _ZN5Caver27ElevatorControllerComponent11GetBindingsEPSt6vectorINS_7BindingESaIS2_EE
00220349 T _ZN5Caver27ElevatorControllerComponent13HandleMessageEiPv
0021ffe1 T _ZN5Caver27ElevatorControllerComponent14StartElevatingEv
0021ff71 T _ZN5Caver27ElevatorControllerComponent15RegisterLibraryEv
0021fbb5 T _ZN5Caver27ElevatorControllerComponent17InitWithComponentEPKS0_
002200b9 T _ZN5Caver27ElevatorControllerComponent18IsAtTargetPositionEv
0021fe63 T _ZN5Caver27ElevatorControllerComponent19PerformBindedActionEi
0021fe11 T _ZN5Caver27ElevatorControllerComponent22ValueForBindedPropertyEi
0021fbd9 T _ZN5Caver27ElevatorControllerComponent23LoadFromProtobufMessageERKNS_5Proto9ComponentE
002200f5 T _ZN5Caver27ElevatorControllerComponent24ReturnToOriginalPositionEv
0021fe41 T _ZN5Caver27ElevatorControllerComponent25SetValueForBindedPropertyEiRKNS_12BindingValueE
0021fd2d T _ZN5Caver27ElevatorControllerComponent30GetEnumValuesForBindedPropertyEiPSt6vectorINS_12BindingValueESaIS2_EE
00220199 T _ZN5Caver27ElevatorControllerComponent6UpdateEf
0021fe69 T _ZN5Caver27ElevatorControllerComponent7PrepareEv
0021fa91 T _ZN5Caver27ElevatorControllerComponentC1Ev
0021fa91 T _ZN5Caver27ElevatorControllerComponentC2Ev
002fb46b T _ZN5Caver27FloatColorToProtobufMessageERKNS_10FloatColorEPNS_5Proto10FloatColorE
00283255 T _ZN5Caver27GuidePurchaseViewController17RestoreCompletionERKSt6vectorISsSaISsEERKSs
00282e3d T _ZN5Caver27GuidePurchaseViewController18PurchaseCompletionERKSsbS2_
002829f5 T _ZN5Caver27GuidePurchaseViewController19SetBuyButtonEnabledEb
00283515 T _ZN5Caver27GuidePurchaseViewController21AlertViewWasDismissedEPNS_12GUIAlertViewE
00283485 T _ZN5Caver27GuidePurchaseViewController21HandlePurchaseSuccessEv
00282b09 T _ZN5Caver27GuidePurchaseViewController23SetRestoreButtonEnabledEb
00282805 T _ZN5Caver27GuidePurchaseViewController24ProductRequestCompletionERKSsRKN5boost10shared_ptrINS_12StoreProductEEES2_
0028350d T _ZN5Caver27GuidePurchaseViewController29AlertViewClickedButtonAtIndexEPNS_12GUIAlertViewEi
00282c0d T _ZN5Caver27GuidePurchaseViewController33GuidePurchaseViewBuyButtonPressedEPNS_17GuidePurchaseViewE
002829c7 T _ZN5Caver27GuidePurchaseViewController35GuidePurchaseViewCloseButtonPressedEPNS_17GuidePurchaseViewE
00283035 T _ZN5Caver27GuidePurchaseViewController37GuidePurchaseViewRestoreButtonPressedEPNS_17GuidePurchaseViewE
00282529 T _ZN5Caver27GuidePurchaseViewController8LoadViewEv
002824f5 T _ZN5Caver27GuidePurchaseViewControllerC1Ev
002824f5 T _ZN5Caver27GuidePurchaseViewControllerC2Ev
0030be45 T _ZN5Caver27GUIScrollLocationController6UpdateEf
0030be05 T _ZN5Caver27GUIScrollLocationControllerC1Ev
0030be05 T _ZN5Caver27GUIScrollLocationControllerC2Ev
0030ebb9 T _ZN5Caver27LineSegmentIntersectsCircleERKNS_11LineSegmentERKNS_6CircleERKNS_7Vector2EffPfPS6_
002fb195 T _ZN5Caver27LoadProtobufMessageFromFileEPN6google8protobuf11MessageLiteERKSs
001db079 T _ZN5Caver27OverlayTargetArrowComponent11GetBindingsEPSt6vectorINS_7BindingESaIS2_EE
001db209 T _ZN5Caver27OverlayTargetArrowComponent14SetIconTextureERKN5boost13intrusive_ptrINS_7TextureEEE
001db2f1 T _ZN5Caver27OverlayTargetArrowComponent15AddTargetObjectERKN5boost13intrusive_ptrINS_11SceneObjectEEE
001db06d T _ZN5Caver27OverlayTargetArrowComponent17InitWithComponentEPKS0_
001db0ad T _ZN5Caver27OverlayTargetArrowComponent19PerformBindedActionEi
001db08d T _ZN5Caver27OverlayTargetArrowComponent22ValueForBindedPropertyEi
001db071 T _ZN5Caver27OverlayTargetArrowComponent23LoadFromProtobufMessageERKNS_5Proto9ComponentE
001db0a3 T _ZN5Caver27OverlayTargetArrowComponent25SetValueForBindedPropertyEiRKNS_12BindingValueE
001db083 T _ZN5Caver27OverlayTargetArrowComponent30GetEnumValuesForBindedPropertyEiPSt6vectorINS_12BindingValueESaIS2_EE
001db5ad T _ZN5Caver27OverlayTargetArrowComponent4DrawEPNS_16RenderingContextEPKNS_6CameraERKNS_9RectangleE
001db31d T _ZN5Caver27OverlayTargetArrowComponent6UpdateEf
001db0b9 T _ZN5Caver27OverlayTargetArrowComponent7PrepareEv
001dafe9 T _ZN5Caver27OverlayTargetArrowComponentC1Ev
001dafe9 T _ZN5Caver27OverlayTargetArrowComponentC2Ev
0022d0b9 T _ZN5Caver27ProtobufValueFromDamageTypeENS_10DamageTypeE
00221041 T _ZN5Caver27RotatingBackgroundComponent11GetBindingsEPSt6vectorINS_7BindingESaIS2_EE
00221035 T _ZN5Caver27RotatingBackgroundComponent17InitWithComponentEPKS0_
0022104b T _ZN5Caver27RotatingBackgroundComponent22ValueForBindedPropertyEi
00221039 T _ZN5Caver27RotatingBackgroundComponent23LoadFromProtobufMessageERKNS_5Proto9ComponentE
00221061 T _ZN5Caver27RotatingBackgroundComponent25SetValueForBindedPropertyEiRKNS_12BindingValueE
00221071 T _ZN5Caver27RotatingBackgroundComponent6UpdateEf
0022100d T _ZN5Caver27RotatingBackgroundComponentC1Ev
0022100d T _ZN5Caver27RotatingBackgroundComponentC2Ev
001d3e29 T _ZN5Caver28AnimationControllerComponent11GetBindingsEPSt6vectorINS_7BindingESaIS2_EE
001d3fb9 T _ZN5Caver28AnimationControllerComponent15RegisterLibraryEv
001d3d0d T _ZN5Caver28AnimationControllerComponent17InitWithComponentEPKS0_
001d3f1b T _ZN5Caver28AnimationControllerComponent19PerformBindedActionEi
001d40c7 T _ZN5Caver28AnimationControllerComponent20BlendToAnimationNodeERKN5boost13intrusive_ptrINS_8AnimNodeEEEf
001d3ed1 T _ZN5Caver28AnimationControllerComponent22ValueForBindedPropertyEi
001d3d39 T _ZN5Caver28AnimationControllerComponent23LoadFromProtobufMessageERKNS_5Proto9ComponentE
001d3ef5 T _ZN5Caver28AnimationControllerComponent25SetValueForBindedPropertyEiRKNS_12BindingValueE
001d3ec7 T _ZN5Caver28AnimationControllerComponent30GetEnumValuesForBindedPropertyEiPSt6vectorINS_12BindingValueESaIS2_EE
001d4029 T _ZN5Caver28AnimationControllerComponent6UpdateEf
001d3f21 T _ZN5Caver28AnimationControllerComponent7PrepareEv
001d3b7d T _ZN5Caver28AnimationControllerComponentC1Ev
001d3b7d T _ZN5Caver28AnimationControllerComponentC2Ev
00225311 T _ZN5Caver28GroundMeshGeneratorComponent11GetBindingsEPSt6vectorINS_7BindingESaIS2_EE
00224e09 T _ZN5Caver28GroundMeshGeneratorComponent12GenerateMeshEv
00224b59 T _ZN5Caver28GroundMeshGeneratorComponent17InitWithComponentEPKS0_
0022583d T _ZN5Caver28GroundMeshGeneratorComponent19PerformBindedActionEi
00224dcd T _ZN5Caver28GroundMeshGeneratorComponent22ComponentValuesChangedEPNS_9ComponentE
00225755 T _ZN5Caver28GroundMeshGeneratorComponent22ValueForBindedPropertyEi
00224c41 T _ZN5Caver28GroundMeshGeneratorComponent23LoadFromProtobufMessageERKNS_5Proto9ComponentE
002257c9 T _ZN5Caver28GroundMeshGeneratorComponent25SetValueForBindedPropertyEiRKNS_12BindingValueE
0022566d T _ZN5Caver28GroundMeshGeneratorComponent30GetEnumValuesForBindedPropertyEiPSt6vectorINS_12BindingValueESaIS2_EE
00224905 T _ZN5Caver28GroundMeshGeneratorComponentC1Ev
00224905 T _ZN5Caver28GroundMeshGeneratorComponentC2Ev
0030e961 T _ZN5Caver28LineSegmentIntersectsPolygonERKNS_11LineSegmentERKNS_7PolygonERKNS_7Vector2EffPfPS6_SA_Pi
002fb595 T _ZN5Caver28PixelFormatFromProtobufValueENS_5Proto11PixelFormatE
002fb59f T _ZN5Caver28ProtobufValueFromPixelFormatENS_11PixelFormatE
0030df55 T _ZN5Caver28RectangleIntersectsRectangleERKNS_9RectangleERKNS_7Vector2EffS2_S5_ffPS3_PfS5_
002fb4ed T _ZN5Caver28SavePolygonToProtobufMessageERKNS_7PolygonEPNS_5Proto7PolygonE
0031f753 T _ZN5Caver28TextureLoadTimeSortPredicateERKN5boost13intrusive_ptrINS_7TextureEEES5_
001e4b85 T _ZN5Caver28TransformControllerComponent11GetBindingsEPSt6vectorINS_7BindingESaIS2_EE
001e51eb T _ZN5Caver28TransformControllerComponent11TranslateByERKNS_7Vector3Ef
001e523f T _ZN5Caver28TransformControllerComponent11TranslateToERKNS_7Vector3Ef
001e5301 T _ZN5Caver28TransformControllerComponent12FollowObjectERKN5boost13intrusive_ptrINS_11SceneObjectEEE
001e4bc1 T _ZN5Caver28TransformControllerComponent15RegisterLibraryEv
001e4b71 T _ZN5Caver28TransformControllerComponent17InitWithComponentEPKS0_
001e4bb9 T _ZN5Caver28TransformControllerComponent19PerformBindedActionEi
001e4b99 T _ZN5Caver28TransformControllerComponent22ValueForBindedPropertyEi
001e4b7d T _ZN5Caver28TransformControllerComponent23LoadFromProtobufMessageERKNS_5Proto9ComponentE
001e4baf T _ZN5Caver28TransformControllerComponent25SetValueForBindedPropertyEiRKNS_12BindingValueE
001e4b8f T _ZN5Caver28TransformControllerComponent30GetEnumValuesForBindedPropertyEiPSt6vectorINS_12BindingValueESaIS2_EE
001e4c31 T _ZN5Caver28TransformControllerComponent6UpdateEf
001e4bbd T _ZN5Caver28TransformControllerComponent7PrepareEv
001e5295 T _ZN5Caver28TransformControllerComponent7ScaleByEff
001e52d5 T _ZN5Caver28TransformControllerComponent7ScaleToEff
001e51a7 T _ZN5Caver28TransformControllerComponent8RotateByEff
001e51cb T _ZN5Caver28TransformControllerComponent8RotateToEff
001e4af1 T _ZN5Caver28TransformControllerComponentC1Ev
001e4af1 T _ZN5Caver28TransformControllerComponentC2Ev
002f4861 T _ZN5Caver29AndroidQueueStoreProductFetchERKSs
002f4d99 T _ZN5Caver29AndroidReceivedPrivacyConsentEb
002f4de9 T _ZN5Caver29AndroidWithdrawPrivacyConsentEv
0020edb1 T _ZN5Caver29BatMonsterControllerComponent11GetBindingsEPSt6vectorINS_7BindingESaIS2_EE
0020f10f T _ZN5Caver29BatMonsterControllerComponent13HandleMessageEiPv
0020eccd T _ZN5Caver29BatMonsterControllerComponent17InitWithComponentEPKS0_
0020ede5 T _ZN5Caver29BatMonsterControllerComponent19PerformBindedActionEi
0020edc5 T _ZN5Caver29BatMonsterControllerComponent22ValueForBindedPropertyEi
0020ece9 T _ZN5Caver29BatMonsterControllerComponent23LoadFromProtobufMessageERKNS_5Proto9ComponentE
0020eddb T _ZN5Caver29BatMonsterControllerComponent25SetValueForBindedPropertyEiRKNS_12BindingValueE
0020edbb T _ZN5Caver29BatMonsterControllerComponent30GetEnumValuesForBindedPropertyEiPSt6vectorINS_12BindingValueESaIS2_EE
0020ee41 T _ZN5Caver29BatMonsterControllerComponent6UpdateEf
0020edf1 T _ZN5Caver29BatMonsterControllerComponent7PrepareEv
0020ea95 T _ZN5Caver29BatMonsterControllerComponentC1Ev
0020ea95 T _ZN5Caver29BatMonsterControllerComponentC2Ev
002f5c41 T _ZN5Caver29FindFileFromParentDirectoriesERKSsSs
002fb459 T _ZN5Caver29FloatColorFromProtobufMessageERKNS_5Proto10FloatColorE
00217ee5 T _ZN5Caver29MagicParticleEmitterComponent11GetBindingsEPSt6vectorINS_7BindingESaIS2_EE
00217ed9 T _ZN5Caver29MagicParticleEmitterComponent17InitWithComponentEPKS0_
00217f19 T _ZN5Caver29MagicParticleEmitterComponent19PerformBindedActionEi
00217ef9 T _ZN5Caver29MagicParticleEmitterComponent22ValueForBindedPropertyEi
00217edd T _ZN5Caver29MagicParticleEmitterComponent23LoadFromProtobufMessageERKNS_5Proto9ComponentE
00217f0f T _ZN5Caver29MagicParticleEmitterComponent25SetValueForBindedPropertyEiRKNS_12BindingValueE
00217eef T _ZN5Caver29MagicParticleEmitterComponent30GetEnumValuesForBindedPropertyEiPSt6vectorINS_12BindingValueESaIS2_EE
00217f29 T _ZN5Caver29MagicParticleEmitterComponent6UpdateEf
00217ead T _ZN5Caver29MagicParticleEmitterComponentC1Ev
00217ead T _ZN5Caver29MagicParticleEmitterComponentC2Ev
00313419 T _ZN5Caver29NewByteBufferFromAndroidAssetERKSsPj
001da261 T _ZN5Caver29ObjectLinkControllerComponent10CreateLinkEv
001da941 T _ZN5Caver29ObjectLinkControllerComponent10LinkToBoneERKN5boost13intrusive_ptrINS_11SceneObjectEEERKSs
001da681 T _ZN5Caver29ObjectLinkControllerComponent10UpdateLinkEf
001da95f T _ZN5Caver29ObjectLinkControllerComponent11DestroyLinkEv
001d9ccd T _ZN5Caver29ObjectLinkControllerComponent11GetBindingsEPSt6vectorINS_7BindingESaIS2_EE
001da505 T _ZN5Caver29ObjectLinkControllerComponent12LinkToObjectERKN5boost13intrusive_ptrINS_11SceneObjectEEE
001da449 T _ZN5Caver29ObjectLinkControllerComponent15RegisterLibraryEv
001d99a1 T _ZN5Caver29ObjectLinkControllerComponent17InitWithComponentEPKS0_
001da413 T _ZN5Caver29ObjectLinkControllerComponent19PerformBindedActionEi
001da2fd T _ZN5Caver29ObjectLinkControllerComponent20UpdateLocalTransformEv
001d9fb1 T _ZN5Caver29ObjectLinkControllerComponent22TargetSkeletonInstanceEv
001d9fed T _ZN5Caver29ObjectLinkControllerComponent22ValueForBindedPropertyEi
001d9a95 T _ZN5Caver29ObjectLinkControllerComponent23LoadFromProtobufMessageERKNS_5Proto9ComponentE
001da0c5 T _ZN5Caver29ObjectLinkControllerComponent25SetValueForBindedPropertyEiRKNS_12BindingValueE
001d9ec1 T _ZN5Caver29ObjectLinkControllerComponent30GetEnumValuesForBindedPropertyEiPSt6vectorINS_12BindingValueESaIS2_EE
001da9dd T _ZN5Caver29ObjectLinkControllerComponent6UpdateEf
001da419 T _ZN5Caver29ObjectLinkControllerComponent7PrepareEv
001d9925 T _ZN5Caver29ObjectLinkControllerComponentC1Ev
001d9925 T _ZN5Caver29ObjectLinkControllerComponentC2Ev
0020bf21 T _ZN5Caver29ProjectileControllerComponent11CreateBlastEv
0020bd11 T _ZN5Caver29ProjectileControllerComponent11GetBindingsEPSt6vectorINS_7BindingESaIS2_EE
0020c049 T _ZN5Caver29ProjectileControllerComponent13HandleMessageEiPv
0020bc59 T _ZN5Caver29ProjectileControllerComponent17InitWithComponentEPKS0_
0020be65 T _ZN5Caver29ProjectileControllerComponent19PerformBindedActionEi
0020be11 T _ZN5Caver29ProjectileControllerComponent22ValueForBindedPropertyEi
0020bc85 T _ZN5Caver29ProjectileControllerComponent23LoadFromProtobufMessageERKNS_5Proto9ComponentE
0020be41 T _ZN5Caver29ProjectileControllerComponent25SetValueForBindedPropertyEiRKNS_12BindingValueE
0020be07 T _ZN5Caver29ProjectileControllerComponent30GetEnumValuesForBindedPropertyEiPSt6vectorINS_12BindingValueESaIS2_EE
0020be99 T _ZN5Caver29ProjectileControllerComponent6UpdateEf
0020be69 T _ZN5Caver29ProjectileControllerComponent7PrepareEv
0020bbf9 T _ZN5Caver29ProjectileControllerComponentC1Ev
0020bbf9 T _ZN5Caver29ProjectileControllerComponentC2Ev
00313ab1 T _ZN5Caver29StringByRemovingPathExtensionERKSs
002f4fc9 T _ZN5Caver30AndroidGetPlatformConsentStateEv
00273cc1 T _ZN5Caver30ConfigureOverlayViewController17ViewWillDisappearEv
00273cc9 T _ZN5Caver30ConfigureOverlayViewController35ConfigureOverlayViewLayoutDidChangeEPNS_20ConfigureOverlayViewE
00273da1 T _ZN5Caver30ConfigureOverlayViewController40ConfigureOverlayViewDismissButtonPressedEPNS_20ConfigureOverlayViewE
00273b6d T _ZN5Caver30ConfigureOverlayViewController8LoadViewEv
00273b45 T _ZN5Caver30ConfigureOverlayViewControllerC1Ev
00273b45 T _ZN5Caver30ConfigureOverlayViewControllerC2Ev
0030eaf1 T _ZN5Caver30LineSegmentIntersectsRectangleERKNS_11LineSegmentERKNS_9RectangleERKNS_7Vector2EffPfPS6_
002fb485 T _ZN5Caver30LoadPolygonFromProtobufMessageEPNS_7PolygonERKNS_5Proto7PolygonE
00299d69 T _ZN5Caver30ProfileSelectionViewController13ViewDidAppearEv
00299d6f T _ZN5Caver30ProfileSelectionViewController34ProfileSelectionViewPlayerDidStartEPNS_20ProfileSelectionViewERKN5boost10shared_ptrINS_13PlayerProfileEEE
00299d95 T _ZN5Caver30ProfileSelectionViewController38ProfileSelectionViewCloseButtonPressedEPNS_20ProfileSelectionViewE
00299c69 T _ZN5Caver30ProfileSelectionViewController8LoadViewEv
00299c41 T _ZN5Caver30ProfileSelectionViewControllerC1Ev
00299c41 T _ZN5Caver30ProfileSelectionViewControllerC2Ev
00313215 T _ZN5Caver30StringByAppendingPathComponentERKSsS1_
00313345 T _ZN5Caver30StringByAppendingPathExtensionERKSsS1_
0031395d T _ZN5Caver30TimerSecondsSinceReferenceDateEv
002f4d4d T _ZN5Caver31AndroidIsExplicitPrivacyConsentEv
00212a55 T _ZN5Caver31MonsterDeathControllerComponent11GetBindingsEPSt6vectorINS_7BindingESaIS2_EE
00212a8d T _ZN5Caver31MonsterDeathControllerComponent11KillMonsterERKN5boost13intrusive_ptrINS_11SceneObjectEEE
00212fcd T _ZN5Caver31MonsterDeathControllerComponent12SliceMonsterERKN5boost13intrusive_ptrINS_11SceneObjectEEERKNS_7Vector4E
002135eb T _ZN5Caver31MonsterDeathControllerComponent13HandleMessageEiPv
00212e51 T _ZN5Caver31MonsterDeathControllerComponent17CreateSliceObjectERKN5boost10shared_ptrINS_5ModelEEERKNS_7Vector3E
002129a5 T _ZN5Caver31MonsterDeathControllerComponent17InitWithComponentEPKS0_
00212c51 T _ZN5Caver31MonsterDeathControllerComponent19FindOriginAndRadiusEv
00212a89 T _ZN5Caver31MonsterDeathControllerComponent19PerformBindedActionEi
00212a69 T _ZN5Caver31MonsterDeathControllerComponent22ValueForBindedPropertyEi
002129c5 T _ZN5Caver31MonsterDeathControllerComponent23LoadFromProtobufMessageERKNS_5Proto9ComponentE
00212a7f T _ZN5Caver31MonsterDeathControllerComponent25SetValueForBindedPropertyEiRKNS_12BindingValueE
00212a5f T _ZN5Caver31MonsterDeathControllerComponent30GetEnumValuesForBindedPropertyEiPSt6vectorINS_12BindingValueESaIS2_EE
00213569 T _ZN5Caver31MonsterDeathControllerComponent6UpdateEf
00213319 T _ZN5Caver31MonsterDeathControllerComponent7ExplodeEv
00213311 T _ZN5Caver31MonsterDeathControllerComponent7PrepareEv
00212881 T _ZN5Caver31MonsterDeathControllerComponentC1Ev
00212881 T _ZN5Caver31MonsterDeathControllerComponentC2Ev
002f5459 T _ZN5Caver32AndroidGetInterstitialAdIntervalERKSsi
002f5219 T _ZN5Caver32AndroidReportAchievementProgressERKSsib
003130a9 T _ZN5Caver32PathForResourceOfTypeInDirectoryERKSsS1_S1_
0030d9d1 T _ZN5Caver32RectangleIntersectsConvexPolygonERKNS_9RectangleERKNS_7Vector2EffRKNS_7PolygonES5_ffPS3_Pf
00214ba5 T _ZN5Caver32SkellyMonsterControllerComponent11GetBindingsEPSt6vectorINS_7BindingESaIS2_EE
00214c39 T _ZN5Caver32SkellyMonsterControllerComponent13CreateWeaponsEv
00215237 T _ZN5Caver32SkellyMonsterControllerComponent13HandleMessageEiPv
00214a91 T _ZN5Caver32SkellyMonsterControllerComponent17InitWithComponentEPKS0_
00214bd9 T _ZN5Caver32SkellyMonsterControllerComponent19PerformBindedActionEi
00214bb9 T _ZN5Caver32SkellyMonsterControllerComponent22ValueForBindedPropertyEi
00214aad T _ZN5Caver32SkellyMonsterControllerComponent23LoadFromProtobufMessageERKNS_5Proto9ComponentE
00214bcf T _ZN5Caver32SkellyMonsterControllerComponent25SetValueForBindedPropertyEiRKNS_12BindingValueE
00214baf T _ZN5Caver32SkellyMonsterControllerComponent30GetEnumValuesForBindedPropertyEiPSt6vectorINS_12BindingValueESaIS2_EE
00214e89 T _ZN5Caver32SkellyMonsterControllerComponent4LeapEv
00214eb1 T _ZN5Caver32SkellyMonsterControllerComponent6UpdateEf
00214be3 T _ZN5Caver32SkellyMonsterControllerComponent7PrepareEv
00214ba1 T _ZN5Caver32SkellyMonsterControllerComponent7ProcessEPSt6vectorIN5boost13intrusive_ptrINS_9ComponentEEESaIS5_EE
00214905 T _ZN5Caver32SkellyMonsterControllerComponentC1Ev
00214905 T _ZN5Caver32SkellyMonsterControllerComponentC2Ev
002164e1 T _ZN5Caver32StaticMonsterControllerComponent11GetBindingsEPSt6vectorINS_7BindingESaIS2_EE
00216727 T _ZN5Caver32StaticMonsterControllerComponent13HandleMessageEiPv
00216391 T _ZN5Caver32StaticMonsterControllerComponent17InitWithComponentEPKS0_
00216515 T _ZN5Caver32StaticMonsterControllerComponent19PerformBindedActionEi
002164f5 T _ZN5Caver32StaticMonsterControllerComponent22ValueForBindedPropertyEi
002163c1 T _ZN5Caver32StaticMonsterControllerComponent23LoadFromProtobufMessageERKNS_5Proto9ComponentE
0021650b T _ZN5Caver32StaticMonsterControllerComponent25SetValueForBindedPropertyEiRKNS_12BindingValueE
002164eb T _ZN5Caver32StaticMonsterControllerComponent30GetEnumValuesForBindedPropertyEiPSt6vectorINS_12BindingValueESaIS2_EE
0021660d T _ZN5Caver32StaticMonsterControllerComponent6UpdateEf
00216521 T _ZN5Caver32StaticMonsterControllerComponent7PrepareEv
002161e5 T _ZN5Caver32StaticMonsterControllerComponentC1Ev
002161e5 T _ZN5Caver32StaticMonsterControllerComponentC2Ev
002f4971 T _ZN5Caver33AndroidConsumePurchasesForTestingEv
002f5061 T _ZN5Caver33AndroidShowPlatformConsentOptionsEv
00211111 T _ZN5Caver33GenericMonsterControllerComponent11GetBindingsEPSt6vectorINS_7BindingESaIS2_EE
002119d9 T _ZN5Caver33GenericMonsterControllerComponent13HandleMessageEiPv
0021106d T _ZN5Caver33GenericMonsterControllerComponent17InitWithComponentEPKS0_
00211293 T _ZN5Caver33GenericMonsterControllerComponent18SetFacingDirectionEi
00211145 T _ZN5Caver33GenericMonsterControllerComponent19PerformBindedActionEi
00211309 T _ZN5Caver33GenericMonsterControllerComponent19SetCurrentMoveSpeedEf
0021123d T _ZN5Caver33GenericMonsterControllerComponent22StartMovingToDirectionEi
00211125 T _ZN5Caver33GenericMonsterControllerComponent22ValueForBindedPropertyEi
00211081 T _ZN5Caver33GenericMonsterControllerComponent23LoadFromProtobufMessageERKNS_5Proto9ComponentE
0021113b T _ZN5Caver33GenericMonsterControllerComponent25SetValueForBindedPropertyEiRKNS_12BindingValueE
0021111b T _ZN5Caver33GenericMonsterControllerComponent30GetEnumValuesForBindedPropertyEiPSt6vectorINS_12BindingValueESaIS2_EE
00211361 T _ZN5Caver33GenericMonsterControllerComponent6UpdateEf
0021114f T _ZN5Caver33GenericMonsterControllerComponent7PrepareEv
00210f21 T _ZN5Caver33GenericMonsterControllerComponentC1Ev
00210f21 T _ZN5Caver33GenericMonsterControllerComponentC2Ev
002120c1 T _ZN5Caver33LeapingMonsterControllerComponent11GetBindingsEPSt6vectorINS_7BindingESaIS2_EE
00211f75 T _ZN5Caver33LeapingMonsterControllerComponent17InitWithComponentEPKS0_
002120f5 T _ZN5Caver33LeapingMonsterControllerComponent19PerformBindedActionEi
00212103 T _ZN5Caver33LeapingMonsterControllerComponent21HandleGroundCollisionERKNS_13CollisionInfoE
002120d5 T _ZN5Caver33LeapingMonsterControllerComponent22ValueForBindedPropertyEi
00211f91 T _ZN5Caver33LeapingMonsterControllerComponent23LoadFromProtobufMessageERKNS_5Proto9ComponentE
002120eb T _ZN5Caver33LeapingMonsterControllerComponent25SetValueForBindedPropertyEiRKNS_12BindingValueE
002120cb T _ZN5Caver33LeapingMonsterControllerComponent30GetEnumValuesForBindedPropertyEiPSt6vectorINS_12BindingValueESaIS2_EE
002120ff T _ZN5Caver33LeapingMonsterControllerComponent6UpdateEf
00212085 T _ZN5Caver33LeapingMonsterControllerComponent7ProcessEPSt6vectorIN5boost13intrusive_ptrINS_9ComponentEEESaIS5_EE
00211e1d T _ZN5Caver33LeapingMonsterControllerComponentC1Ev
00211e1d T _ZN5Caver33LeapingMonsterControllerComponentC2Ev
001d8f39 T _ZN5Caver33ModelTransformControllerComponent11GetBindingsEPSt6vectorINS_7BindingESaIS2_EE
001d93c1 T _ZN5Caver33ModelTransformControllerComponent15RegisterLibraryEv
001d8cf5 T _ZN5Caver33ModelTransformControllerComponent17InitWithComponentEPKS0_
001d93b7 T _ZN5Caver33ModelTransformControllerComponent19PerformBindedActionEi
001d923d T _ZN5Caver33ModelTransformControllerComponent22ValueForBindedPropertyEi
001d8d35 T _ZN5Caver33ModelTransformControllerComponent23LoadFromProtobufMessageERKNS_5Proto9ComponentE
001d92b9 T _ZN5Caver33ModelTransformControllerComponent25SetValueForBindedPropertyEiRKNS_12BindingValueE
001d9233 T _ZN5Caver33ModelTransformControllerComponent30GetEnumValuesForBindedPropertyEiPSt6vectorINS_12BindingValueESaIS2_EE
001d9431 T _ZN5Caver33ModelTransformControllerComponent6UpdateEf
001d93bb T _ZN5Caver33ModelTransformControllerComponent7PrepareEv
001d8bdd T _ZN5Caver33ModelTransformControllerComponentC1Ev
001d8bdd T _ZN5Caver33ModelTransformControllerComponentC2Ev
0028e3ff T _ZN5Caver33OfflineAchievementsViewController10ResumeViewEv
0028e401 T _ZN5Caver33OfflineAchievementsViewController10UnloadViewEv
0028e3fd T _ZN5Caver33OfflineAchievementsViewController11SuspendViewEv
0028e379 T _ZN5Caver33OfflineAchievementsViewController13ButtonPressedEPvPNS_8GUIEventE
0028e3d9 T _ZN5Caver33OfflineAchievementsViewController13ViewDidAppearEv
0028e3d3 T _ZN5Caver33OfflineAchievementsViewController19GoogleSignInHandlerEbRKSs
0028def5 T _ZN5Caver33OfflineAchievementsViewController8LoadViewEv
0028de5d T _ZN5Caver33OfflineAchievementsViewControllerC1Ev
0028de5d T _ZN5Caver33OfflineAchievementsViewControllerC2Ev
0028ded1 T _ZN5Caver33OfflineAchievementsViewControllerD0Ev
0028de81 T _ZN5Caver33OfflineAchievementsViewControllerD1Ev
0028de81 T _ZN5Caver33OfflineAchievementsViewControllerD2Ev
00313b25 T _ZN5Caver33StringByRemovingLastPathComponentERKSs
00216afd T _ZN5Caver33WalkingMonsterControllerComponent11GetBindingsEPSt6vectorINS_7BindingESaIS2_EE
00216d9d T _ZN5Caver33WalkingMonsterControllerComponent13HandleMessageEiPv
00216a39 T _ZN5Caver33WalkingMonsterControllerComponent17InitWithComponentEPKS0_
00216b31 T _ZN5Caver33WalkingMonsterControllerComponent19PerformBindedActionEi
00216b3b T _ZN5Caver33WalkingMonsterControllerComponent22StartMovingToDirectionEi
00216b11 T _ZN5Caver33WalkingMonsterControllerComponent22ValueForBindedPropertyEi
00216a6d T _ZN5Caver33WalkingMonsterControllerComponent23LoadFromProtobufMessageERKNS_5Proto9ComponentE
00216b27 T _ZN5Caver33WalkingMonsterControllerComponent25SetValueForBindedPropertyEiRKNS_12BindingValueE
00216b07 T _ZN5Caver33WalkingMonsterControllerComponent30GetEnumValuesForBindedPropertyEiPSt6vectorINS_12BindingValueESaIS2_EE
00216b6d T _ZN5Caver33WalkingMonsterControllerComponent6UpdateEf
00216965 T _ZN5Caver33WalkingMonsterControllerComponentC1Ev
00216965 T _ZN5Caver33WalkingMonsterControllerComponentC2Ev
0020f695 T _ZN5Caver34BouncingMonsterControllerComponent11GetBindingsEPSt6vectorINS_7BindingESaIS2_EE
0020fcc3 T _ZN5Caver34BouncingMonsterControllerComponent13HandleMessageEiPv
0020f591 T _ZN5Caver34BouncingMonsterControllerComponent17InitWithComponentEPKS0_
0020f813 T _ZN5Caver34BouncingMonsterControllerComponent19PerformBindedActionEi
0020f96d T _ZN5Caver34BouncingMonsterControllerComponent22StartMovingToDirectionEi
0020f799 T _ZN5Caver34BouncingMonsterControllerComponent22ValueForBindedPropertyEi
0020f5bd T _ZN5Caver34BouncingMonsterControllerComponent23LoadFromProtobufMessageERKNS_5Proto9ComponentE
0020f7dd T _ZN5Caver34BouncingMonsterControllerComponent25SetValueForBindedPropertyEiRKNS_12BindingValueE
0020f78f T _ZN5Caver34BouncingMonsterControllerComponent30GetEnumValuesForBindedPropertyEiPSt6vectorINS_12BindingValueESaIS2_EE
0020fa4d T _ZN5Caver34BouncingMonsterControllerComponent4FallEv
0020f99d T _ZN5Caver34BouncingMonsterControllerComponent4JumpEv
0020fa85 T _ZN5Caver34BouncingMonsterControllerComponent6UpdateEf
0020f81d T _ZN5Caver34BouncingMonsterControllerComponent7PrepareEv
0020f429 T _ZN5Caver34BouncingMonsterControllerComponentC1Ev
0020f429 T _ZN5Caver34BouncingMonsterControllerComponentC2Ev
0021027d T _ZN5Caver34ChargingMonsterControllerComponent11GetBindingsEPSt6vectorINS_7BindingESaIS2_EE
0021069f T _ZN5Caver34ChargingMonsterControllerComponent12StopChargingEv
00210b25 T _ZN5Caver34ChargingMonsterControllerComponent13HandleMessageEiPv
00210663 T _ZN5Caver34ChargingMonsterControllerComponent13StartChargingEv
002100d1 T _ZN5Caver34ChargingMonsterControllerComponent17InitWithComponentEPKS0_
002103d9 T _ZN5Caver34ChargingMonsterControllerComponent19PerformBindedActionEi
0021062f T _ZN5Caver34ChargingMonsterControllerComponent22StartMovingToDirectionEi
00210381 T _ZN5Caver34ChargingMonsterControllerComponent22ValueForBindedPropertyEi
00210165 T _ZN5Caver34ChargingMonsterControllerComponent23LoadFromProtobufMessageERKNS_5Proto9ComponentE
002103b3 T _ZN5Caver34ChargingMonsterControllerComponent25SetValueForBindedPropertyEiRKNS_12BindingValueE
00210377 T _ZN5Caver34ChargingMonsterControllerComponent30GetEnumValuesForBindedPropertyEiPSt6vectorINS_12BindingValueESaIS2_EE
002106bd T _ZN5Caver34ChargingMonsterControllerComponent6UpdateEf
002103e5 T _ZN5Caver34ChargingMonsterControllerComponent7PrepareEv
0020fecd T _ZN5Caver34ChargingMonsterControllerComponentC1Ev
0020fecd T _ZN5Caver34ChargingMonsterControllerComponentC2Ev
0022d0c9 T _ZN5Caver34ProtobufValueFromSpecialDamageTypeENS_17SpecialDamageTypeE
00213f7d T _ZN5Caver34ShootingMonsterControllerComponent11GetBindingsEPSt6vectorINS_7BindingESaIS2_EE
0021469d T _ZN5Caver34ShootingMonsterControllerComponent13HandleMessageEiPv
00213e99 T _ZN5Caver34ShootingMonsterControllerComponent17InitWithComponentEPKS0_
00213fb1 T _ZN5Caver34ShootingMonsterControllerComponent19PerformBindedActionEi
00214175 T _ZN5Caver34ShootingMonsterControllerComponent22StartMovingToDirectionEi
00213f91 T _ZN5Caver34ShootingMonsterControllerComponent22ValueForBindedPropertyEi
00213eb5 T _ZN5Caver34ShootingMonsterControllerComponent23LoadFromProtobufMessageERKNS_5Proto9ComponentE
00213fa7 T _ZN5Caver34ShootingMonsterControllerComponent25SetValueForBindedPropertyEiRKNS_12BindingValueE
00213f87 T _ZN5Caver34ShootingMonsterControllerComponent30GetEnumValuesForBindedPropertyEiPSt6vectorINS_12BindingValueESaIS2_EE
002141a9 T _ZN5Caver34ShootingMonsterControllerComponent5ShootEv
002141e5 T _ZN5Caver34ShootingMonsterControllerComponent6UpdateEf
00213fbd T _ZN5Caver34ShootingMonsterControllerComponent7PrepareEv
00213d21 T _ZN5Caver34ShootingMonsterControllerComponentC1Ev
00213d21 T _ZN5Caver34ShootingMonsterControllerComponentC2Ev
00215a89 T _ZN5Caver34SnappingMonsterControllerComponent11GetBindingsEPSt6vectorINS_7BindingESaIS2_EE
00215e7f T _ZN5Caver34SnappingMonsterControllerComponent13HandleMessageEiPv
00215c91 T _ZN5Caver34SnappingMonsterControllerComponent13StopAttackingEv
00215aed T _ZN5Caver34SnappingMonsterControllerComponent15RegisterLibraryEv
0021581d T _ZN5Caver34SnappingMonsterControllerComponent17InitWithComponentEPKS0_
00215abd T _ZN5Caver34SnappingMonsterControllerComponent19PerformBindedActionEi
00215a9d T _ZN5Caver34SnappingMonsterControllerComponent22ValueForBindedPropertyEi
00215925 T _ZN5Caver34SnappingMonsterControllerComponent23LoadFromProtobufMessageERKNS_5Proto9ComponentE
00215ab3 T _ZN5Caver34SnappingMonsterControllerComponent25SetValueForBindedPropertyEiRKNS_12BindingValueE
00215a93 T _ZN5Caver34SnappingMonsterControllerComponent30GetEnumValuesForBindedPropertyEiPSt6vectorINS_12BindingValueESaIS2_EE
00215b5d T _ZN5Caver34SnappingMonsterControllerComponent6AttackEv
00215cd5 T _ZN5Caver34SnappingMonsterControllerComponent6UpdateEf
00215ac7 T _ZN5Caver34SnappingMonsterControllerComponent7PrepareEv
00215581 T _ZN5Caver34SnappingMonsterControllerComponentC1Ev
00215581 T _ZN5Caver34SnappingMonsterControllerComponentC2Ev
0022d0c1 T _ZN5Caver34SpecialDamageTypeFromProtobufValueENS_5Proto17SpecialDamageTypeE
0022ae1f T _ZN5Caver34SwingableWeaponControllerComponent10StartSwingEiff
0022aab5 T _ZN5Caver34SwingableWeaponControllerComponent11BoneForNameERKSs
0022a755 T _ZN5Caver34SwingableWeaponControllerComponent11GetBindingsEPSt6vectorINS_7BindingESaIS2_EE
0022ab25 T _ZN5Caver34SwingableWeaponControllerComponent12CreateWeaponEv
0022af7f T _ZN5Caver34SwingableWeaponControllerComponent13HandleMessageEiPv
0022ae01 T _ZN5Caver34SwingableWeaponControllerComponent15SetWeaponHiddenEb
0022a5e7 T _ZN5Caver34SwingableWeaponControllerComponent17InitWithComponentEPKS0_
0022ad09 T _ZN5Caver34SwingableWeaponControllerComponent18SetWeaponComponentERKN5boost13intrusive_ptrINS_24SwingableWeaponComponentEEE
0022aea5 T _ZN5Caver34SwingableWeaponControllerComponent21UpdateWeaponTransformEv
0022a991 T _ZN5Caver34SwingableWeaponControllerComponent22ValueForBindedPropertyEi
0022a63d T _ZN5Caver34SwingableWeaponControllerComponent23LoadFromProtobufMessageERKNS_5Proto9ComponentE
0022a9c1 T _ZN5Caver34SwingableWeaponControllerComponent25SetValueForBindedPropertyEiRKNS_12BindingValueE
0022a849 T _ZN5Caver34SwingableWeaponControllerComponent30GetEnumValuesForBindedPropertyEiPSt6vectorINS_12BindingValueESaIS2_EE
0022af39 T _ZN5Caver34SwingableWeaponControllerComponent6UpdateEf
0022acf7 T _ZN5Caver34SwingableWeaponControllerComponent7PrepareEv
0022ae41 T _ZN5Caver34SwingableWeaponControllerComponent9KnockBackEv
0022ae33 T _ZN5Caver34SwingableWeaponControllerComponent9StopSwingEv
0022a3ad T _ZN5Caver34SwingableWeaponControllerComponentC1Ev
0022a3ad T _ZN5Caver34SwingableWeaponControllerComponentC2Ev
0022a5c5 T _ZN5Caver34SwingableWeaponControllerComponentD0Ev
0022a4e5 T _ZN5Caver34SwingableWeaponControllerComponentD1Ev
0022a4e5 T _ZN5Caver34SwingableWeaponControllerComponentD2Ev
0029bc2d T _ZN5Caver35ProfileManagerLoadingViewController24DismissAfterMinimumDelayEf
0029bb85 T _ZN5Caver35ProfileManagerLoadingViewController6UpdateEf
0029ba8d T _ZN5Caver35ProfileManagerLoadingViewController8LoadViewEv
0029ba69 T _ZN5Caver35ProfileManagerLoadingViewControllerC1Ev
0029ba69 T _ZN5Caver35ProfileManagerLoadingViewControllerC2Ev
002f513d T _ZN5Caver36AndroidIsGoogleGameServicesAvailableEv
00213ad9 T _ZN5Caver36ProjectileMonsterControllerComponent11GetBindingsEPSt6vectorINS_7BindingESaIS2_EE
00213bdb T _ZN5Caver36ProjectileMonsterControllerComponent13HandleMessageEiPv
00213acd T _ZN5Caver36ProjectileMonsterControllerComponent17InitWithComponentEPKS0_
00213b0d T _ZN5Caver36ProjectileMonsterControllerComponent19PerformBindedActionEi
00213aed T _ZN5Caver36ProjectileMonsterControllerComponent22ValueForBindedPropertyEi
00213ad1 T _ZN5Caver36ProjectileMonsterControllerComponent23LoadFromProtobufMessageERKNS_5Proto9ComponentE
00213b03 T _ZN5Caver36ProjectileMonsterControllerComponent25SetValueForBindedPropertyEiRKNS_12BindingValueE
00213ae3 T _ZN5Caver36ProjectileMonsterControllerComponent30GetEnumValuesForBindedPropertyEiPSt6vectorINS_12BindingValueESaIS2_EE
00213b39 T _ZN5Caver36ProjectileMonsterControllerComponent6UpdateEf
00213b17 T _ZN5Caver36ProjectileMonsterControllerComponent7PrepareEv
00213aa9 T _ZN5Caver36ProjectileMonsterControllerComponentC1Ev
00213aa9 T _ZN5Caver36ProjectileMonsterControllerComponentC2Ev
001d0081 T _ZN5Caver37BoneControlledCollisionShapeComponent11BoneForNameERKSs
001cfc75 T _ZN5Caver37BoneControlledCollisionShapeComponent11GetBindingsEPSt6vectorINS_7BindingESaIS2_EE
001cfb31 T _ZN5Caver37BoneControlledCollisionShapeComponent17InitWithComponentEPKS0_
001d02bf T _ZN5Caver37BoneControlledCollisionShapeComponent20UpdateCollisionShapeEv
001cff87 T _ZN5Caver37BoneControlledCollisionShapeComponent22ValueForBindedPropertyEi
001cfba1 T _ZN5Caver37BoneControlledCollisionShapeComponent23LoadFromProtobufMessageERKNS_5Proto9ComponentE
001cffb1 T _ZN5Caver37BoneControlledCollisionShapeComponent25SetValueForBindedPropertyEiRKNS_12BindingValueE
001cfd59 T _ZN5Caver37BoneControlledCollisionShapeComponent30GetEnumValuesForBindedPropertyEiPSt6vectorINS_12BindingValueESaIS2_EE
001d00b9 T _ZN5Caver37BoneControlledCollisionShapeComponent6UpdateEf
001cf939 T _ZN5Caver37BoneControlledCollisionShapeComponentC1Ev
001cf939 T _ZN5Caver37BoneControlledCollisionShapeComponentC2Ev
00312dbd T _ZN5Caver37NewFramebufferImplForDrawingToTextureERKN5boost13intrusive_ptrINS_7TextureEEE
0030d6c1 T _ZN5Caver3Box20ExpandToIncludePointERKNS_7Vector3E
002a3c29 T _ZN5Caver3Map11NodeForNameERKSs
002a3acb T _ZN5Caver3Map14UnflagAllNodesEv
002a3565 T _ZN5Caver3Map23LoadFromProtobufMessageERKNS_5Proto3MapE
002a3ae5 T _ZN5Caver3Map27RecursivelySetNodePositionsEPNS_7MapNodeE
002a3db5 T _ZN5Caver3Map8FindPathERKSsS2_
002a34f1 T _ZN5Caver3MapC1Ev
002a34f1 T _ZN5Caver3MapC2Ev
0030d909 T _ZN5Caver43IsCollisionNormalValidForPolygonLineSegmentERKNS_7Vector2ERKNS_7PolygonEi
0031a161 T _ZN5Caver4Font10SystemFontEv
0031a189 T _ZN5Caver4Font11DefaultFontEv
0031a149 T _ZN5Caver4Font12FontWithNameERKSs
0031a1b1 T _ZN5Caver4Font12LoadFromFileERKSs
0031a175 T _ZN5Caver4Font15SmallSystemFontEv
0031a19d T _ZN5Caver4Font16SmallDefaultFontEv
0031a225 T _ZN5Caver4Font23LoadFromProtobufMessageERKNS_5Proto4FontE
0031a793 T _ZN5Caver4Font29KerningBetweenGlyphsAtIndicesEii
0031a7b7 T _ZN5Caver4Font32SetKerningBetweenGlyphsAtIndicesEiii
0031a81d T _ZN5Caver4Font5ScaleEf
0031a6a9 T _ZN5Caver4Font8AddGlyphERKNS0_5GlyphE
002a3249 T _ZN5Caver4Item23LoadFromProtobufMessageERKNS_5Proto4ItemE
002a322d T _ZN5Caver4ItemC1Ev
002a322d T _ZN5Caver4ItemC2Ev
002d8ba9 T _ZN5Caver4Mesh14GetDataStructsEPPNS_8MeshDataEPi
002d8cd1 T _ZN5Caver4Mesh15AllocateBuffersEi
002d85c5 T _ZN5Caver4Mesh16AllocIndexBufferEi
002d8e6d T _ZN5Caver4Mesh16NormalizeNormalsEv
002d85f5 T _ZN5Caver4Mesh17AllocVertexBufferEi
002d8dfd T _ZN5Caver4Mesh17TransformVerticesERKNS_7Matrix4E
002d8ee1 T _ZN5Caver4Mesh17UpdateBoundingBoxEv
002d863f T _ZN5Caver4Mesh18SetNumTexCoordSetsEi
002d8bed T _ZN5Caver4Mesh21CreateInterleavedDataEiii
002d8fb9 T _ZN5Caver4Mesh23GetVertexIndicesForFaceEiPi
002d8219 T _ZN5Caver4Mesh23LoadFromProtobufMessageERKNS_5Proto4MeshE
002fb9b5 T _ZN5Caver5Color14FromFloatColorERKNS_10FloatColorE
002fba09 T _ZN5Caver5Color38ColorByReversingAlphaPremultiplicationEv
0032260d T _ZN5Caver5Image12CopyDataFromEPKv
00322419 T _ZN5Caver5Image12LoadFromFileERKSsNS_9ImageTypeEb
003218fb T _ZN5Caver5Image13InitWithImageERKS0_
00323665 T _ZN5Caver5Image15LoadFromPNGFileERKSsb
00322451 T _ZN5Caver5Image15LoadFromTEXFileERKSsb
00322615 T _ZN5Caver5Image16PremultiplyAlphaEv
00322145 T _ZN5Caver5Image20ConvertToPixelFormatENS_11PixelFormatEb
003219ff T _ZN5Caver5Image4BlitEiiRKS0_
00321a1b T _ZN5Caver5Image4BlitEiiRKS0_iiii
003219f1 T _ZN5Caver5Image5ClearEv
00321979 T _ZN5Caver5Image6CreateEiiNS_11PixelFormatE
0032207d T _ZN5Caver5Image6ResizeEii
00321c4d T _ZN5Caver5Image8SetPixelEiiRKNS_10FloatColorE
0032194f T _ZN5Caver5ImageC1EiiNS_11PixelFormatE
003218d7 T _ZN5Caver5ImageC1ERKS0_
003218cd T _ZN5Caver5ImageC1Ev
0032194f T _ZN5Caver5ImageC2EiiNS_11PixelFormatE
003218d7 T _ZN5Caver5ImageC2ERKS0_
003218cd T _ZN5Caver5ImageC2Ev
003219c5 T _ZN5Caver5ImageD1Ev
003219c5 T _ZN5Caver5ImageD2Ev
0022fa35 T _ZN5Caver5Proto10FloatColor10SharedCtorEv
0022fb61 T _ZN5Caver5Proto10FloatColor10SharedDtorEv
0022fb9d T _ZN5Caver5Proto10FloatColor16default_instanceEv
0022fdff T _ZN5Caver5Proto10FloatColor21CheckTypeAndMergeFromERKN6google8protobuf11MessageLiteE
0022d897 T _ZN5Caver5Proto10FloatColor21InitAsDefaultInstanceEv
0022fc0d T _ZN5Caver5Proto10FloatColor27MergePartialFromCodedStreamEPN6google8protobuf2io16CodedInputStreamE
0022fe29 T _ZN5Caver5Proto10FloatColor4SwapEPS1_
0022fbf5 T _ZN5Caver5Proto10FloatColor5ClearEv
0022fe03 T _ZN5Caver5Proto10FloatColor8CopyFromERKS1_
0022fa8d T _ZN5Caver5Proto10FloatColor9MergeFromERKS1_
0022fa49 T _ZN5Caver5Proto10FloatColorC1ERKS1_
0022fa11 T _ZN5Caver5Proto10FloatColorC1Ev
0022fa49 T _ZN5Caver5Proto10FloatColorC2ERKS1_
0022fa11 T _ZN5Caver5Proto10FloatColorC2Ev
0022fb65 T _ZN5Caver5Proto10FloatColorD0Ev
0022fb4d T _ZN5Caver5Proto10FloatColorD1Ev
0022fb4d T _ZN5Caver5Proto10FloatColorD2Ev
002314b9 T _ZN5Caver5Proto10Font_Glyph10SharedCtorEv
0023168d T _ZN5Caver5Proto10Font_Glyph10SharedDtorEv
002316e5 T _ZN5Caver5Proto10Font_Glyph16default_instanceEv
00231b7d T _ZN5Caver5Proto10Font_Glyph21CheckTypeAndMergeFromERKN6google8protobuf11MessageLiteE
0022d935 T _ZN5Caver5Proto10Font_Glyph21InitAsDefaultInstanceEv
00231785 T _ZN5Caver5Proto10Font_Glyph27MergePartialFromCodedStreamEPN6google8protobuf2io16CodedInputStreamE
00231ba7 T _ZN5Caver5Proto10Font_Glyph4SwapEPS1_
0023173d T _ZN5Caver5Proto10Font_Glyph5ClearEv
00231b81 T _ZN5Caver5Proto10Font_Glyph8CopyFromERKS1_
00231509 T _ZN5Caver5Proto10Font_Glyph9MergeFromERKS1_
002314c9 T _ZN5Caver5Proto10Font_GlyphC1ERKS1_
00231495 T _ZN5Caver5Proto10Font_GlyphC1Ev
002314c9 T _ZN5Caver5Proto10Font_GlyphC2ERKS1_
00231495 T _ZN5Caver5Proto10Font_GlyphC2Ev
002316bd T _ZN5Caver5Proto10Font_GlyphD0Ev
00231655 T _ZN5Caver5Proto10Font_GlyphD1Ev
00231655 T _ZN5Caver5Proto10Font_GlyphD2Ev
00232ff1 T _ZN5Caver5Proto10GUIMargins10SharedCtorEv
00233115 T _ZN5Caver5Proto10GUIMargins10SharedDtorEv
00233151 T _ZN5Caver5Proto10GUIMargins16default_instanceEv
002333af T _ZN5Caver5Proto10GUIMargins21CheckTypeAndMergeFromERKN6google8protobuf11MessageLiteE
0022d977 T _ZN5Caver5Proto10GUIMargins21InitAsDefaultInstanceEv
002331bd T _ZN5Caver5Proto10GUIMargins27MergePartialFromCodedStreamEPN6google8protobuf2io16CodedInputStreamE
002333d9 T _ZN5Caver5Proto10GUIMargins4SwapEPS1_
002331a9 T _ZN5Caver5Proto10GUIMargins5ClearEv
002333b3 T _ZN5Caver5Proto10GUIMargins8CopyFromERKS1_
00233041 T _ZN5Caver5Proto10GUIMargins9MergeFromERKS1_
00233001 T _ZN5Caver5Proto10GUIMarginsC1ERKS1_
00232fcd T _ZN5Caver5Proto10GUIMarginsC1Ev
00233001 T _ZN5Caver5Proto10GUIMarginsC2ERKS1_
00232fcd T _ZN5Caver5Proto10GUIMarginsC2Ev
00233119 T _ZN5Caver5Proto10GUIMarginsD0Ev
00233101 T _ZN5Caver5Proto10GUIMarginsD1Ev
00233101 T _ZN5Caver5Proto10GUIMarginsD2Ev
00243e2d T _ZN5Caver5Proto10LevelState10SharedCtorEv
00244021 T _ZN5Caver5Proto10LevelState10SharedDtorEv
0024409d T _ZN5Caver5Proto10LevelState16default_instanceEv
0024456d T _ZN5Caver5Proto10LevelState21CheckTypeAndMergeFromERKN6google8protobuf11MessageLiteE
0023ee11 T _ZN5Caver5Proto10LevelState21InitAsDefaultInstanceEv
0024415d T _ZN5Caver5Proto10LevelState27MergePartialFromCodedStreamEPN6google8protobuf2io16CodedInputStreamE
00244597 T _ZN5Caver5Proto10LevelState4SwapEPS1_
00244101 T _ZN5Caver5Proto10LevelState5ClearEv
00244571 T _ZN5Caver5Proto10LevelState8CopyFromERKS1_
00243e9d T _ZN5Caver5Proto10LevelState9MergeFromERKS1_
00243e4d T _ZN5Caver5Proto10LevelStateC1ERKS1_
00243dfd T _ZN5Caver5Proto10LevelStateC1Ev
00243e4d T _ZN5Caver5Proto10LevelStateC2ERKS1_
00243dfd T _ZN5Caver5Proto10LevelStateC2Ev
00244075 T _ZN5Caver5Proto10LevelStateD0Ev
00243fe9 T _ZN5Caver5Proto10LevelStateD1Ev
00243fe9 T _ZN5Caver5Proto10LevelStateD2Ev
00234965 T _ZN5Caver5Proto10MusicTrack10SharedCtorEv
00234ad1 T _ZN5Caver5Proto10MusicTrack10SharedDtorEv
00234b31 T _ZN5Caver5Proto10MusicTrack16default_instanceEv
00234d57 T _ZN5Caver5Proto10MusicTrack21CheckTypeAndMergeFromERKN6google8protobuf11MessageLiteE
0022d9a5 T _ZN5Caver5Proto10MusicTrack21InitAsDefaultInstanceEv
00234bc9 T _ZN5Caver5Proto10MusicTrack27MergePartialFromCodedStreamEPN6google8protobuf2io16CodedInputStreamE
00234d81 T _ZN5Caver5Proto10MusicTrack4SwapEPS1_
00234b91 T _ZN5Caver5Proto10MusicTrack5ClearEv
00234d5b T _ZN5Caver5Proto10MusicTrack8CopyFromERKS1_
002349c9 T _ZN5Caver5Proto10MusicTrack9MergeFromERKS1_
00234981 T _ZN5Caver5Proto10MusicTrackC1ERKS1_
0023493d T _ZN5Caver5Proto10MusicTrackC1Ev
00234981 T _ZN5Caver5Proto10MusicTrackC2ERKS1_
0023493d T _ZN5Caver5Proto10MusicTrackC2Ev
00234b09 T _ZN5Caver5Proto10MusicTrackD0Ev
00234a99 T _ZN5Caver5Proto10MusicTrackD1Ev
00234a99 T _ZN5Caver5Proto10MusicTrackD2Ev
00272281 T _ZN5Caver5Proto10PackedMesh10SharedCtorEv
002724f9 T _ZN5Caver5Proto10PackedMesh10SharedDtorEv
00272559 T _ZN5Caver5Proto10PackedMesh16default_instanceEv
00272b51 T _ZN5Caver5Proto10PackedMesh21CheckTypeAndMergeFromERKN6google8protobuf11MessageLiteE
0024ad55 T _ZN5Caver5Proto10PackedMesh21InitAsDefaultInstanceEv
00272619 T _ZN5Caver5Proto10PackedMesh27MergePartialFromCodedStreamEPN6google8protobuf2io16CodedInputStreamE
00272b7b T _ZN5Caver5Proto10PackedMesh4SwapEPS1_
002725e1 T _ZN5Caver5Proto10PackedMesh5ClearEv
00272b55 T _ZN5Caver5Proto10PackedMesh8CopyFromERKS1_
00272329 T _ZN5Caver5Proto10PackedMesh9MergeFromERKS1_
00272295 T _ZN5Caver5Proto10PackedMeshC1ERKS1_
00272229 T _ZN5Caver5Proto10PackedMeshC1Ev
00272295 T _ZN5Caver5Proto10PackedMeshC2ERKS1_
00272229 T _ZN5Caver5Proto10PackedMeshC2Ev
00272531 T _ZN5Caver5Proto10PackedMeshD0Ev
00272455 T _ZN5Caver5Proto10PackedMeshD1Ev
00272455 T _ZN5Caver5Proto10PackedMeshD2Ev
002415e9 T _ZN5Caver5Proto10QuestState10SharedCtorEv
0024174d T _ZN5Caver5Proto10QuestState10SharedDtorEv
002417ad T _ZN5Caver5Proto10QuestState16default_instanceEv
002419ef T _ZN5Caver5Proto10QuestState21CheckTypeAndMergeFromERKN6google8protobuf11MessageLiteE
0023edc5 T _ZN5Caver5Proto10QuestState21InitAsDefaultInstanceEv
00241841 T _ZN5Caver5Proto10QuestState27MergePartialFromCodedStreamEPN6google8protobuf2io16CodedInputStreamE
00241a19 T _ZN5Caver5Proto10QuestState4SwapEPS1_
00241809 T _ZN5Caver5Proto10QuestState5ClearEv
002419f3 T _ZN5Caver5Proto10QuestState8CopyFromERKS1_
00241645 T _ZN5Caver5Proto10QuestState9MergeFromERKS1_
00241601 T _ZN5Caver5Proto10QuestStateC1ERKS1_
002415c5 T _ZN5Caver5Proto10QuestStateC1Ev
00241601 T _ZN5Caver5Proto10QuestStateC2ERKS1_
002415c5 T _ZN5Caver5Proto10QuestStateC2Ev
00241785 T _ZN5Caver5Proto10QuestStateD0Ev
00241715 T _ZN5Caver5Proto10QuestStateD1Ev
00241715 T _ZN5Caver5Proto10QuestStateD2Ev
0023acb5 T _ZN5Caver5Proto11EntityClass10SharedCtorEv
0023aee1 T _ZN5Caver5Proto11EntityClass10SharedDtorEv
0023af75 T _ZN5Caver5Proto11EntityClass16default_instanceEv
0023b4ab T _ZN5Caver5Proto11EntityClass21CheckTypeAndMergeFromERKN6google8protobuf11MessageLiteE
002369c3 T _ZN5Caver5Proto11EntityClass21InitAsDefaultInstanceEv
0023b055 T _ZN5Caver5Proto11EntityClass27MergePartialFromCodedStreamEPN6google8protobuf2io16CodedInputStreamE
0023b4d5 T _ZN5Caver5Proto11EntityClass4SwapEPS1_
0023afed T _ZN5Caver5Proto11EntityClass5ClearEv
0023b4af T _ZN5Caver5Proto11EntityClass8CopyFromERKS1_
0023ad41 T _ZN5Caver5Proto11EntityClass9MergeFromERKS1_
0023ace5 T _ZN5Caver5Proto11EntityClassC1ERKS1_
0023ac71 T _ZN5Caver5Proto11EntityClassC1Ev
0023ace5 T _ZN5Caver5Proto11EntityClassC2ERKS1_
0023ac71 T _ZN5Caver5Proto11EntityClassC2Ev
0023af4d T _ZN5Caver5Proto11EntityClassD0Ev
0023aea9 T _ZN5Caver5Proto11EntityClassD1Ev
0023aea9 T _ZN5Caver5Proto11EntityClassD2Ev
0023c801 T _ZN5Caver5Proto11GameOptions10SharedCtorEv
0023cb09 T _ZN5Caver5Proto11GameOptions10SharedDtorEv
0023cb61 T _ZN5Caver5Proto11GameOptions16default_instanceEv
0023d38d T _ZN5Caver5Proto11GameOptions21CheckTypeAndMergeFromERKN6google8protobuf11MessageLiteE
002369c9 T _ZN5Caver5Proto11GameOptions21InitAsDefaultInstanceEv
0023cc49 T _ZN5Caver5Proto11GameOptions27MergePartialFromCodedStreamEPN6google8protobuf2io16CodedInputStreamE
0023d3b7 T _ZN5Caver5Proto11GameOptions4SwapEPS1_
0023cbd9 T _ZN5Caver5Proto11GameOptions5ClearEv
0023d391 T _ZN5Caver5Proto11GameOptions8CopyFromERKS1_
0023c891 T _ZN5Caver5Proto11GameOptions9MergeFromERKS1_
0023c821 T _ZN5Caver5Proto11GameOptionsC1ERKS1_
0023c7b9 T _ZN5Caver5Proto11GameOptionsC1Ev
0023c821 T _ZN5Caver5Proto11GameOptionsC2ERKS1_
0023c7b9 T _ZN5Caver5Proto11GameOptionsC2Ev
0023cb39 T _ZN5Caver5Proto11GameOptionsD0Ev
0023cabd T _ZN5Caver5Proto11GameOptionsD1Ev
0023cabd T _ZN5Caver5Proto11GameOptionsD2Ev
0023bb69 T _ZN5Caver5Proto11GuideTarget10SharedCtorEv
0023bed5 T _ZN5Caver5Proto11GuideTarget10SharedDtorEv
0023bf9d T _ZN5Caver5Proto11GuideTarget16default_instanceEv
0023c6f5 T _ZN5Caver5Proto11GuideTarget21CheckTypeAndMergeFromERKN6google8protobuf11MessageLiteE
002369c5 T _ZN5Caver5Proto11GuideTarget21InitAsDefaultInstanceEv
0023c109 T _ZN5Caver5Proto11GuideTarget27MergePartialFromCodedStreamEPN6google8protobuf2io16CodedInputStreamE
0023c71f T _ZN5Caver5Proto11GuideTarget4SwapEPS1_
0023c041 T _ZN5Caver5Proto11GuideTarget5ClearEv
0023c6f9 T _ZN5Caver5Proto11GuideTarget8CopyFromERKS1_
0023bc4d T _ZN5Caver5Proto11GuideTarget9MergeFromERKS1_
0023bbb1 T _ZN5Caver5Proto11GuideTargetC1ERKS1_
0023baf5 T _ZN5Caver5Proto11GuideTargetC1Ev
0023bbb1 T _ZN5Caver5Proto11GuideTargetC2ERKS1_
0023baf5 T _ZN5Caver5Proto11GuideTargetC2Ev
0023bf75 T _ZN5Caver5Proto11GuideTargetD0Ev
0023be89 T _ZN5Caver5Proto11GuideTargetD1Ev
0023be89 T _ZN5Caver5Proto11GuideTargetD2Ev
0024cb15 T _ZN5Caver5Proto11SceneObject10SharedCtorEv
0024cc1d T _ZN5Caver5Proto11SceneObject10SharedDtorEv
0024b4ed T _ZN5Caver5Proto11SceneObject16default_instanceEv
0024d555 T _ZN5Caver5Proto11SceneObject21CheckTypeAndMergeFromERKN6google8protobuf11MessageLiteE
00249a43 T _ZN5Caver5Proto11SceneObject21InitAsDefaultInstanceEv
0024cd3d T _ZN5Caver5Proto11SceneObject27MergePartialFromCodedStreamEPN6google8protobuf2io16CodedInputStreamE
0024d5a7 T _ZN5Caver5Proto11SceneObject4SwapEPS1_
0024b78d T _ZN5Caver5Proto11SceneObject5ClearEv
0024d559 T _ZN5Caver5Proto11SceneObject8CopyFromERKS1_
0024baad T _ZN5Caver5Proto11SceneObject9MergeFromERKS1_
0024cb49 T _ZN5Caver5Proto11SceneObjectC1ERKS1_
0024caad T _ZN5Caver5Proto11SceneObjectC1Ev
0024cb49 T _ZN5Caver5Proto11SceneObjectC2ERKS1_
0024caad T _ZN5Caver5Proto11SceneObjectC2Ev
0024cca9 T _ZN5Caver5Proto11SceneObjectD0Ev
0024cbd1 T _ZN5Caver5Proto11SceneObjectD1Ev
0024cbd1 T _ZN5Caver5Proto11SceneObjectD2Ev
00233d55 T _ZN5Caver5Proto11SoundEffect10SharedCtorEv
00233f45 T _ZN5Caver5Proto11SoundEffect10SharedDtorEv
00233fd9 T _ZN5Caver5Proto11SoundEffect16default_instanceEv
00234347 T _ZN5Caver5Proto11SoundEffect21CheckTypeAndMergeFromERKN6google8protobuf11MessageLiteE
0022d9a1 T _ZN5Caver5Proto11SoundEffect21InitAsDefaultInstanceEv
002340b9 T _ZN5Caver5Proto11SoundEffect27MergePartialFromCodedStreamEPN6google8protobuf2io16CodedInputStreamE
00234371 T _ZN5Caver5Proto11SoundEffect4SwapEPS1_
00234051 T _ZN5Caver5Proto11SoundEffect5ClearEv
0023434b T _ZN5Caver5Proto11SoundEffect8CopyFromERKS1_
00233ded T _ZN5Caver5Proto11SoundEffect9MergeFromERKS1_
00233d8d T _ZN5Caver5Proto11SoundEffectC1ERKS1_
00233d0d T _ZN5Caver5Proto11SoundEffectC1Ev
00233d8d T _ZN5Caver5Proto11SoundEffectC2ERKS1_
00233d0d T _ZN5Caver5Proto11SoundEffectC2Ev
00233fb1 T _ZN5Caver5Proto11SoundEffectD0Ev
00233f0d T _ZN5Caver5Proto11SoundEffectD1Ev
00233f0d T _ZN5Caver5Proto11SoundEffectD2Ev
002700e1 T _ZN5Caver5Proto12MeshMaterial10SharedCtorEv
00270305 T _ZN5Caver5Proto12MeshMaterial10SharedDtorEv
00270371 T _ZN5Caver5Proto12MeshMaterial16default_instanceEv
0027095d T _ZN5Caver5Proto12MeshMaterial21CheckTypeAndMergeFromERKN6google8protobuf11MessageLiteE
0024ac67 T _ZN5Caver5Proto12MeshMaterial21InitAsDefaultInstanceEv
00270419 T _ZN5Caver5Proto12MeshMaterial27MergePartialFromCodedStreamEPN6google8protobuf2io16CodedInputStreamE
00270987 T _ZN5Caver5Proto12MeshMaterial4SwapEPS1_
002703c9 T _ZN5Caver5Proto12MeshMaterial5ClearEv
00270961 T _ZN5Caver5Proto12MeshMaterial8CopyFromERKS1_
00270131 T _ZN5Caver5Proto12MeshMaterial9MergeFromERKS1_
002700f1 T _ZN5Caver5Proto12MeshMaterialC1ERKS1_
002700bd T _ZN5Caver5Proto12MeshMaterialC1Ev
002700f1 T _ZN5Caver5Proto12MeshMaterialC2ERKS1_
002700bd T _ZN5Caver5Proto12MeshMaterialC2Ev
00270349 T _ZN5Caver5Proto12MeshMaterialD0Ev
002702cd T _ZN5Caver5Proto12MeshMaterialD1Ev
002702cd T _ZN5Caver5Proto12MeshMaterialD2Ev
00234411 T _ZN5Caver5Proto12SoundLibrary10SharedCtorEv
002345e1 T _ZN5Caver5Proto12SoundLibrary10SharedDtorEv
00234609 T _ZN5Caver5Proto12SoundLibrary16default_instanceEv
002348a7 T _ZN5Caver5Proto12SoundLibrary21CheckTypeAndMergeFromERKN6google8protobuf11MessageLiteE
0022d9a3 T _ZN5Caver5Proto12SoundLibrary21InitAsDefaultInstanceEv
00234691 T _ZN5Caver5Proto12SoundLibrary27MergePartialFromCodedStreamEPN6google8protobuf2io16CodedInputStreamE
002348d1 T _ZN5Caver5Proto12SoundLibrary4SwapEPS1_
00234665 T _ZN5Caver5Proto12SoundLibrary5ClearEv
002348ab T _ZN5Caver5Proto12SoundLibrary8CopyFromERKS1_
00234471 T _ZN5Caver5Proto12SoundLibrary9MergeFromERKS1_
00234419 T _ZN5Caver5Proto12SoundLibraryC1ERKS1_
002343e9 T _ZN5Caver5Proto12SoundLibraryC1Ev
00234419 T _ZN5Caver5Proto12SoundLibraryC2ERKS1_
002343e9 T _ZN5Caver5Proto12SoundLibraryC2Ev
002345e3 T _ZN5Caver5Proto12SoundLibraryD0Ev
002345a5 T _ZN5Caver5Proto12SoundLibraryD1Ev
002345a5 T _ZN5Caver5Proto12SoundLibraryD2Ev
00272c5d T _ZN5Caver5Proto12UnpackedMesh10SharedCtorEv
00272ed5 T _ZN5Caver5Proto12UnpackedMesh10SharedDtorEv
00272f35 T _ZN5Caver5Proto12UnpackedMesh16default_instanceEv
0027340f T _ZN5Caver5Proto12UnpackedMesh21CheckTypeAndMergeFromERKN6google8protobuf11MessageLiteE
0024ad57 T _ZN5Caver5Proto12UnpackedMesh21InitAsDefaultInstanceEv
00272ff5 T _ZN5Caver5Proto12UnpackedMesh27MergePartialFromCodedStreamEPN6google8protobuf2io16CodedInputStreamE
00273439 T _ZN5Caver5Proto12UnpackedMesh4SwapEPS1_
00272fbd T _ZN5Caver5Proto12UnpackedMesh5ClearEv
00273413 T _ZN5Caver5Proto12UnpackedMesh8CopyFromERKS1_
00272d05 T _ZN5Caver5Proto12UnpackedMesh9MergeFromERKS1_
00272c71 T _ZN5Caver5Proto12UnpackedMeshC1ERKS1_
00272c05 T _ZN5Caver5Proto12UnpackedMeshC1Ev
00272c71 T _ZN5Caver5Proto12UnpackedMeshC2ERKS1_
00272c05 T _ZN5Caver5Proto12UnpackedMeshC2Ev
00272f0d T _ZN5Caver5Proto12UnpackedMeshD0Ev
00272e31 T _ZN5Caver5Proto12UnpackedMeshD1Ev
00272e31 T _ZN5Caver5Proto12UnpackedMeshD2Ev
00233491 T _ZN5Caver5Proto13GUIViewLayout10SharedCtorEv
0023371d T _ZN5Caver5Proto13GUIViewLayout10SharedDtorEv
00233799 T _ZN5Caver5Proto13GUIViewLayout16default_instanceEv
00233c69 T _ZN5Caver5Proto13GUIViewLayout21CheckTypeAndMergeFromERKN6google8protobuf11MessageLiteE
0022d979 T _ZN5Caver5Proto13GUIViewLayout21InitAsDefaultInstanceEv
0023387d T _ZN5Caver5Proto13GUIViewLayout27MergePartialFromCodedStreamEPN6google8protobuf2io16CodedInputStreamE
00233c93 T _ZN5Caver5Proto13GUIViewLayout4SwapEPS1_
0023380d T _ZN5Caver5Proto13GUIViewLayout5ClearEv
00233c6d T _ZN5Caver5Proto13GUIViewLayout8CopyFromERKS1_
0023350d T _ZN5Caver5Proto13GUIViewLayout9MergeFromERKS1_
002334a9 T _ZN5Caver5Proto13GUIViewLayoutC1ERKS1_
00233451 T _ZN5Caver5Proto13GUIViewLayoutC1Ev
002334a9 T _ZN5Caver5Proto13GUIViewLayoutC2ERKS1_
00233451 T _ZN5Caver5Proto13GUIViewLayoutC2Ev
00233771 T _ZN5Caver5Proto13GUIViewLayoutD0Ev
002336d1 T _ZN5Caver5Proto13GUIViewLayoutD1Ev
002336d1 T _ZN5Caver5Proto13GUIViewLayoutD2Ev
00234e25 T _ZN5Caver5Proto13MusicPlaylist10SharedCtorEv
00235041 T _ZN5Caver5Proto13MusicPlaylist10SharedDtorEv
002350a1 T _ZN5Caver5Proto13MusicPlaylist16default_instanceEv
0023541d T _ZN5Caver5Proto13MusicPlaylist21CheckTypeAndMergeFromERKN6google8protobuf11MessageLiteE
0022d9a7 T _ZN5Caver5Proto13MusicPlaylist21InitAsDefaultInstanceEv
00235165 T _ZN5Caver5Proto13MusicPlaylist27MergePartialFromCodedStreamEPN6google8protobuf2io16CodedInputStreamE
00235447 T _ZN5Caver5Proto13MusicPlaylist4SwapEPS1_
00235115 T _ZN5Caver5Proto13MusicPlaylist5ClearEv
00235421 T _ZN5Caver5Proto13MusicPlaylist8CopyFromERKS1_
00234e9d T _ZN5Caver5Proto13MusicPlaylist9MergeFromERKS1_
00234e39 T _ZN5Caver5Proto13MusicPlaylistC1ERKS1_
00234de9 T _ZN5Caver5Proto13MusicPlaylistC1Ev
00234e39 T _ZN5Caver5Proto13MusicPlaylistC2ERKS1_
00234de9 T _ZN5Caver5Proto13MusicPlaylistC2Ev
00235079 T _ZN5Caver5Proto13MusicPlaylistD0Ev
00234ff5 T _ZN5Caver5Proto13MusicPlaylistD1Ev
00234ff5 T _ZN5Caver5Proto13MusicPlaylistD2Ev
0024be81 T _ZN5Caver5Proto13ObjectLibrary10SharedCtorEv
0024c269 T _ZN5Caver5Proto13ObjectLibrary10SharedDtorEv
0024c2c9 T _ZN5Caver5Proto13ObjectLibrary16default_instanceEv
0024c9bb T _ZN5Caver5Proto13ObjectLibrary21CheckTypeAndMergeFromERKN6google8protobuf11MessageLiteE
00249a41 T _ZN5Caver5Proto13ObjectLibrary21InitAsDefaultInstanceEv
0024c3fd T _ZN5Caver5Proto13ObjectLibrary27MergePartialFromCodedStreamEPN6google8protobuf2io16CodedInputStreamE
0024ca0d T _ZN5Caver5Proto13ObjectLibrary4SwapEPS1_
0024c35d T _ZN5Caver5Proto13ObjectLibrary5ClearEv
0024c9bf T _ZN5Caver5Proto13ObjectLibrary8CopyFromERKS1_
0024bf45 T _ZN5Caver5Proto13ObjectLibrary9MergeFromERKS1_
0024be99 T _ZN5Caver5Proto13ObjectLibraryC1ERKS1_
0024be15 T _ZN5Caver5Proto13ObjectLibraryC1Ev
0024be99 T _ZN5Caver5Proto13ObjectLibraryC2ERKS1_
0024be15 T _ZN5Caver5Proto13ObjectLibraryC2Ev
0024c2a1 T _ZN5Caver5Proto13ObjectLibraryD0Ev
0024c1e1 T _ZN5Caver5Proto13ObjectLibraryD1Ev
0024c1e1 T _ZN5Caver5Proto13ObjectLibraryD2Ev
0023f3b5 T _ZN5Caver5Proto13PlayerProfile10SharedCtorEv
0023f925 T _ZN5Caver5Proto13PlayerProfile10SharedDtorEv
0023fa79 T _ZN5Caver5Proto13PlayerProfile16default_instanceEv
002409b5 T _ZN5Caver5Proto13PlayerProfile21CheckTypeAndMergeFromERKN6google8protobuf11MessageLiteE
0023ed91 T _ZN5Caver5Proto13PlayerProfile21InitAsDefaultInstanceEv
0023fed5 T _ZN5Caver5Proto13PlayerProfile27MergePartialFromCodedStreamEPN6google8protobuf2io16CodedInputStreamE
002410bf T _ZN5Caver5Proto13PlayerProfile4SwapEPS1_
0023fb5d T _ZN5Caver5Proto13PlayerProfile5ClearEv
00241099 T _ZN5Caver5Proto13PlayerProfile8CopyFromERKS1_
0023f53d T _ZN5Caver5Proto13PlayerProfile9MergeFromERKS1_
0023f469 T _ZN5Caver5Proto13PlayerProfileC1ERKS1_
0023f309 T _ZN5Caver5Proto13PlayerProfileC1Ev
0023f469 T _ZN5Caver5Proto13PlayerProfileC2ERKS1_
0023f309 T _ZN5Caver5Proto13PlayerProfileC2Ev
0023fa51 T _ZN5Caver5Proto13PlayerProfileD0Ev
0023f8d9 T _ZN5Caver5Proto13PlayerProfileD1Ev
0023f8d9 T _ZN5Caver5Proto13PlayerProfileD2Ev
00244b89 T _ZN5Caver5Proto14CharacterState10SharedCtorEv
00244d29 T _ZN5Caver5Proto14CharacterState10SharedDtorEv
002421b9 T _ZN5Caver5Proto14CharacterState16default_instanceEv
00245b85 T _ZN5Caver5Proto14CharacterState21CheckTypeAndMergeFromERKN6google8protobuf11MessageLiteE
0023ee39 T _ZN5Caver5Proto14CharacterState21InitAsDefaultInstanceEv
00244ecd T _ZN5Caver5Proto14CharacterState27MergePartialFromCodedStreamEPN6google8protobuf2io16CodedInputStreamE
00245baf T _ZN5Caver5Proto14CharacterState4SwapEPS1_
00242509 T _ZN5Caver5Proto14CharacterState5ClearEv
00245b89 T _ZN5Caver5Proto14CharacterState8CopyFromERKS1_
00243899 T _ZN5Caver5Proto14CharacterState9MergeFromERKS1_
00244c01 T _ZN5Caver5Proto14CharacterStateC1ERKS1_
00244af5 T _ZN5Caver5Proto14CharacterStateC1Ev
00244c01 T _ZN5Caver5Proto14CharacterStateC2ERKS1_
00244af5 T _ZN5Caver5Proto14CharacterStateC2Ev
00244e0d T _ZN5Caver5Proto14CharacterStateD0Ev
00244cc9 T _ZN5Caver5Proto14CharacterStateD1Ev
00244cc9 T _ZN5Caver5Proto14CharacterStateD2Ev
00257125 T _ZN5Caver5Proto14LightComponent10SharedCtorEv
00257311 T _ZN5Caver5Proto14LightComponent10SharedDtorEv
00249e99 T _ZN5Caver5Proto14LightComponent16default_instanceEv
00257899 T _ZN5Caver5Proto14LightComponent21CheckTypeAndMergeFromERKN6google8protobuf11MessageLiteE
00249e85 T _ZN5Caver5Proto14LightComponent21InitAsDefaultInstanceEv
002573d1 T _ZN5Caver5Proto14LightComponent27MergePartialFromCodedStreamEPN6google8protobuf2io16CodedInputStreamE
002578c3 T _ZN5Caver5Proto14LightComponent4SwapEPS1_
00257395 T _ZN5Caver5Proto14LightComponent5ClearEv
0025789d T _ZN5Caver5Proto14LightComponent8CopyFromERKS1_
00257175 T _ZN5Caver5Proto14LightComponent9MergeFromERKS1_
00257135 T _ZN5Caver5Proto14LightComponentC1ERKS1_
00257101 T _ZN5Caver5Proto14LightComponentC1Ev
00257135 T _ZN5Caver5Proto14LightComponentC2ERKS1_
00257101 T _ZN5Caver5Proto14LightComponentC2Ev
00257341 T _ZN5Caver5Proto14LightComponentD0Ev
002572d9 T _ZN5Caver5Proto14LightComponentD1Ev
002572d9 T _ZN5Caver5Proto14LightComponentD2Ev
00236a31 T _ZN5Caver5Proto14MapNode_Portal10SharedCtorEv
00236bc5 T _ZN5Caver5Proto14MapNode_Portal10SharedDtorEv
00236c25 T _ZN5Caver5Proto14MapNode_Portal16default_instanceEv
00236f8d T _ZN5Caver5Proto14MapNode_Portal21CheckTypeAndMergeFromERKN6google8protobuf11MessageLiteE
002369b7 T _ZN5Caver5Proto14MapNode_Portal21InitAsDefaultInstanceEv
00236cc5 T _ZN5Caver5Proto14MapNode_Portal27MergePartialFromCodedStreamEPN6google8protobuf2io16CodedInputStreamE
00236fb7 T _ZN5Caver5Proto14MapNode_Portal4SwapEPS1_
00236c89 T _ZN5Caver5Proto14MapNode_Portal5ClearEv
00236f91 T _ZN5Caver5Proto14MapNode_Portal8CopyFromERKS1_
00236a99 T _ZN5Caver5Proto14MapNode_Portal9MergeFromERKS1_
00236a4d T _ZN5Caver5Proto14MapNode_PortalC1ERKS1_
00236a05 T _ZN5Caver5Proto14MapNode_PortalC1Ev
00236a4d T _ZN5Caver5Proto14MapNode_PortalC2ERKS1_
00236a05 T _ZN5Caver5Proto14MapNode_PortalC2Ev
00236bfd T _ZN5Caver5Proto14MapNode_PortalD0Ev
00236b8d T _ZN5Caver5Proto14MapNode_PortalD1Ev
00236b8d T _ZN5Caver5Proto14MapNode_PortalD2Ev
0024f179 T _ZN5Caver5Proto14ModelComponent10SharedCtorEv
0024f3fd T _ZN5Caver5Proto14ModelComponent10SharedDtorEv
00249b19 T _ZN5Caver5Proto14ModelComponent16default_instanceEv
0024fb45 T _ZN5Caver5Proto14ModelComponent21CheckTypeAndMergeFromERKN6google8protobuf11MessageLiteE
00249afd T _ZN5Caver5Proto14ModelComponent21InitAsDefaultInstanceEv
0024f535 T _ZN5Caver5Proto14ModelComponent27MergePartialFromCodedStreamEPN6google8protobuf2io16CodedInputStreamE
0024fb6f T _ZN5Caver5Proto14ModelComponent4SwapEPS1_
0024f4c9 T _ZN5Caver5Proto14ModelComponent5ClearEv
0024fb49 T _ZN5Caver5Proto14ModelComponent8CopyFromERKS1_
0024f1f1 T _ZN5Caver5Proto14ModelComponent9MergeFromERKS1_
0024f19d T _ZN5Caver5Proto14ModelComponentC1ERKS1_
0024f141 T _ZN5Caver5Proto14ModelComponentC1Ev
0024f19d T _ZN5Caver5Proto14ModelComponentC2ERKS1_
0024f141 T _ZN5Caver5Proto14ModelComponentC2Ev
0024f465 T _ZN5Caver5Proto14ModelComponentD0Ev
0024f3c5 T _ZN5Caver5Proto14ModelComponentD1Ev
0024f3c5 T _ZN5Caver5Proto14ModelComponentD2Ev
0024b4dd T _ZN5Caver5Proto14ObjectTemplate10SharedCtorEv
0024b6cd T _ZN5Caver5Proto14ObjectTemplate10SharedDtorEv
0024b711 T _ZN5Caver5Proto14ObjectTemplate16default_instanceEv
0024baa9 T _ZN5Caver5Proto14ObjectTemplate21CheckTypeAndMergeFromERKN6google8protobuf11MessageLiteE
00249a19 T _ZN5Caver5Proto14ObjectTemplate21InitAsDefaultInstanceEv
0024b849 T _ZN5Caver5Proto14ObjectTemplate27MergePartialFromCodedStreamEPN6google8protobuf2io16CodedInputStreamE
0024bdad T _ZN5Caver5Proto14ObjectTemplate4SwapEPS1_
0024b765 T _ZN5Caver5Proto14ObjectTemplate5ClearEv
0024bd51 T _ZN5Caver5Proto14ObjectTemplate8CopyFromERKS1_
0024b559 T _ZN5Caver5Proto14ObjectTemplate9MergeFromERKS1_
0024b519 T _ZN5Caver5Proto14ObjectTemplateC1ERKS1_
0024b4bd T _ZN5Caver5Proto14ObjectTemplateC1Ev
0024b519 T _ZN5Caver5Proto14ObjectTemplateC2ERKS1_
0024b4bd T _ZN5Caver5Proto14ObjectTemplateC2Ev
0024b6e9 T _ZN5Caver5Proto14ObjectTemplateD0Ev
0024b681 T _ZN5Caver5Proto14ObjectTemplateD1Ev
0024b681 T _ZN5Caver5Proto14ObjectTemplateD2Ev
00253f6d T _ZN5Caver5Proto14ShapeComponent10SharedCtorEv
0025413d T _ZN5Caver5Proto14ShapeComponent10SharedDtorEv
00249d2d T _ZN5Caver5Proto14ShapeComponent16default_instanceEv
002545dd T _ZN5Caver5Proto14ShapeComponent21CheckTypeAndMergeFromERKN6google8protobuf11MessageLiteE
00249d11 T _ZN5Caver5Proto14ShapeComponent21InitAsDefaultInstanceEv
00254209 T _ZN5Caver5Proto14ShapeComponent27MergePartialFromCodedStreamEPN6google8protobuf2io16CodedInputStreamE
00254607 T _ZN5Caver5Proto14ShapeComponent4SwapEPS1_
002541cd T _ZN5Caver5Proto14ShapeComponent5ClearEv
002545e1 T _ZN5Caver5Proto14ShapeComponent8CopyFromERKS1_
00253fbd T _ZN5Caver5Proto14ShapeComponent9MergeFromERKS1_
00253f7d T _ZN5Caver5Proto14ShapeComponentC1ERKS1_
00253f49 T _ZN5Caver5Proto14ShapeComponentC1Ev
00253f7d T _ZN5Caver5Proto14ShapeComponentC2ERKS1_
00253f49 T _ZN5Caver5Proto14ShapeComponentC2Ev
00254179 T _ZN5Caver5Proto14ShapeComponentD0Ev
00254105 T _ZN5Caver5Proto14ShapeComponentD1Ev
00254105 T _ZN5Caver5Proto14ShapeComponentD2Ev
0026d4f9 T _ZN5Caver5Proto14SkillComponent10SharedCtorEv
0026d6a5 T _ZN5Caver5Proto14SkillComponent10SharedDtorEv
0024aa89 T _ZN5Caver5Proto14SkillComponent16default_instanceEv
0026da85 T _ZN5Caver5Proto14SkillComponent21CheckTypeAndMergeFromERKN6google8protobuf11MessageLiteE
0024aa79 T _ZN5Caver5Proto14SkillComponent21InitAsDefaultInstanceEv
0026d795 T _ZN5Caver5Proto14SkillComponent27MergePartialFromCodedStreamEPN6google8protobuf2io16CodedInputStreamE
0026daaf T _ZN5Caver5Proto14SkillComponent4SwapEPS1_
0026d751 T _ZN5Caver5Proto14SkillComponent5ClearEv
0026da89 T _ZN5Caver5Proto14SkillComponent8CopyFromERKS1_
0026d559 T _ZN5Caver5Proto14SkillComponent9MergeFromERKS1_
0026d511 T _ZN5Caver5Proto14SkillComponentC1ERKS1_
0026d4d1 T _ZN5Caver5Proto14SkillComponentC1Ev
0026d511 T _ZN5Caver5Proto14SkillComponentC2ERKS1_
0026d4d1 T _ZN5Caver5Proto14SkillComponentC2Ev
0026d6f9 T _ZN5Caver5Proto14SkillComponentD0Ev
0026d66d T _ZN5Caver5Proto14SkillComponentD1Ev
0026d66d T _ZN5Caver5Proto14SkillComponentD2Ev
0026f35d T _ZN5Caver5Proto14SpellComponent10SharedCtorEv
0026f4b1 T _ZN5Caver5Proto14SpellComponent10SharedDtorEv
0024abd9 T _ZN5Caver5Proto14SpellComponent16default_instanceEv
0026f6c5 T _ZN5Caver5Proto14SpellComponent21CheckTypeAndMergeFromERKN6google8protobuf11MessageLiteE
0024abc9 T _ZN5Caver5Proto14SpellComponent21InitAsDefaultInstanceEv
0026f539 T _ZN5Caver5Proto14SpellComponent27MergePartialFromCodedStreamEPN6google8protobuf2io16CodedInputStreamE
0026f6ef T _ZN5Caver5Proto14SpellComponent4SwapEPS1_
0026f519 T _ZN5Caver5Proto14SpellComponent5ClearEv
0026f6c9 T _ZN5Caver5Proto14SpellComponent8CopyFromERKS1_
0026f3a1 T _ZN5Caver5Proto14SpellComponent9MergeFromERKS1_
0026f369 T _ZN5Caver5Proto14SpellComponentC1ERKS1_
0026f345 T _ZN5Caver5Proto14SpellComponentC1Ev
0026f369 T _ZN5Caver5Proto14SpellComponentC2ERKS1_
0026f345 T _ZN5Caver5Proto14SpellComponentC2Ev
0026f4cd T _ZN5Caver5Proto14SpellComponentD0Ev
0026f465 T _ZN5Caver5Proto14SpellComponentD1Ev
0026f465 T _ZN5Caver5Proto14SpellComponentD2Ev
00267cf9 T _ZN5Caver5Proto14SwingComponent10SharedCtorEv
00267e31 T _ZN5Caver5Proto14SwingComponent10SharedDtorEv
0024a7c1 T _ZN5Caver5Proto14SwingComponent16default_instanceEv
00268165 T _ZN5Caver5Proto14SwingComponent21CheckTypeAndMergeFromERKN6google8protobuf11MessageLiteE
0024a7bd T _ZN5Caver5Proto14SwingComponent21InitAsDefaultInstanceEv
00267ea9 T _ZN5Caver5Proto14SwingComponent27MergePartialFromCodedStreamEPN6google8protobuf2io16CodedInputStreamE
0026818f T _ZN5Caver5Proto14SwingComponent4SwapEPS1_
00267e95 T _ZN5Caver5Proto14SwingComponent5ClearEv
00268169 T _ZN5Caver5Proto14SwingComponent8CopyFromERKS1_
00267d49 T _ZN5Caver5Proto14SwingComponent9MergeFromERKS1_
00267d09 T _ZN5Caver5Proto14SwingComponentC1ERKS1_
00267cd9 T _ZN5Caver5Proto14SwingComponentC1Ev
00267d09 T _ZN5Caver5Proto14SwingComponentC2ERKS1_
00267cd9 T _ZN5Caver5Proto14SwingComponentC2Ev
00267e35 T _ZN5Caver5Proto14SwingComponentD0Ev
00267e1d T _ZN5Caver5Proto14SwingComponentD1Ev
00267e1d T _ZN5Caver5Proto14SwingComponentD2Ev
00264129 T _ZN5Caver5Proto15AttackComponent10SharedCtorEv
00264371 T _ZN5Caver5Proto15AttackComponent10SharedDtorEv
0024a5a5 T _ZN5Caver5Proto15AttackComponent16default_instanceEv
00264aed T _ZN5Caver5Proto15AttackComponent21CheckTypeAndMergeFromERKN6google8protobuf11MessageLiteE
0024a595 T _ZN5Caver5Proto15AttackComponent21InitAsDefaultInstanceEv
00264425 T _ZN5Caver5Proto15AttackComponent27MergePartialFromCodedStreamEPN6google8protobuf2io16CodedInputStreamE
00264b17 T _ZN5Caver5Proto15AttackComponent4SwapEPS1_
002643e1 T _ZN5Caver5Proto15AttackComponent5ClearEv
00264af1 T _ZN5Caver5Proto15AttackComponent8CopyFromERKS1_
00264179 T _ZN5Caver5Proto15AttackComponent9MergeFromERKS1_
00264139 T _ZN5Caver5Proto15AttackComponentC1ERKS1_
00264105 T _ZN5Caver5Proto15AttackComponentC1Ev
00264139 T _ZN5Caver5Proto15AttackComponentC2ERKS1_
00264105 T _ZN5Caver5Proto15AttackComponentC2Ev
0026438d T _ZN5Caver5Proto15AttackComponentD0Ev
00264325 T _ZN5Caver5Proto15AttackComponentD1Ev
00264325 T _ZN5Caver5Proto15AttackComponentD2Ev
00255499 T _ZN5Caver5Proto15DamageComponent10SharedCtorEv
00255651 T _ZN5Caver5Proto15DamageComponent10SharedDtorEv
00249da5 T _ZN5Caver5Proto15DamageComponent16default_instanceEv
00255bcb T _ZN5Caver5Proto15DamageComponent21CheckTypeAndMergeFromERKN6google8protobuf11MessageLiteE
00249da1 T _ZN5Caver5Proto15DamageComponent21InitAsDefaultInstanceEv
002556f9 T _ZN5Caver5Proto15DamageComponent27MergePartialFromCodedStreamEPN6google8protobuf2io16CodedInputStreamE
00255bf5 T _ZN5Caver5Proto15DamageComponent4SwapEPS1_
002556c5 T _ZN5Caver5Proto15DamageComponent5ClearEv
00255bcf T _ZN5Caver5Proto15DamageComponent8CopyFromERKS1_
00255515 T _ZN5Caver5Proto15DamageComponent9MergeFromERKS1_
002554bd T _ZN5Caver5Proto15DamageComponentC1ERKS1_
00255465 T _ZN5Caver5Proto15DamageComponentC1Ev
002554bd T _ZN5Caver5Proto15DamageComponentC2ERKS1_
00255465 T _ZN5Caver5Proto15DamageComponentC2Ev
00255655 T _ZN5Caver5Proto15DamageComponentD0Ev
0025563d T _ZN5Caver5Proto15DamageComponentD1Ev
0025563d T _ZN5Caver5Proto15DamageComponentD2Ev
002357e1 T _ZN5Caver5Proto15EditorViewState10SharedCtorEv
00235b55 T _ZN5Caver5Proto15EditorViewState10SharedDtorEv
00235c21 T _ZN5Caver5Proto15EditorViewState16default_instanceEv
00236389 T _ZN5Caver5Proto15EditorViewState21CheckTypeAndMergeFromERKN6google8protobuf11MessageLiteE
00235759 T _ZN5Caver5Proto15EditorViewState21InitAsDefaultInstanceEv
00235d5d T _ZN5Caver5Proto15EditorViewState27MergePartialFromCodedStreamEPN6google8protobuf2io16CodedInputStreamE
002363b3 T _ZN5Caver5Proto15EditorViewState4SwapEPS1_
00235cb9 T _ZN5Caver5Proto15EditorViewState5ClearEv
0023638d T _ZN5Caver5Proto15EditorViewState8CopyFromERKS1_
002358b5 T _ZN5Caver5Proto15EditorViewState9MergeFromERKS1_
00235825 T _ZN5Caver5Proto15EditorViewStateC1ERKS1_
00235779 T _ZN5Caver5Proto15EditorViewStateC1Ev
00235825 T _ZN5Caver5Proto15EditorViewStateC2ERKS1_
00235779 T _ZN5Caver5Proto15EditorViewStateC2Ev
00235bf9 T _ZN5Caver5Proto15EditorViewStateD0Ev
00235b09 T _ZN5Caver5Proto15EditorViewStateD1Ev
00235b09 T _ZN5Caver5Proto15EditorViewStateD2Ev
0025a019 T _ZN5Caver5Proto15EntityComponent10SharedCtorEv
0025a115 T _ZN5Caver5Proto15EntityComponent10SharedDtorEv
00249fc5 T _ZN5Caver5Proto15EntityComponent16default_instanceEv
0025a323 T _ZN5Caver5Proto15EntityComponent21CheckTypeAndMergeFromERKN6google8protobuf11MessageLiteE
00249fc1 T _ZN5Caver5Proto15EntityComponent21InitAsDefaultInstanceEv
0025a185 T _ZN5Caver5Proto15EntityComponent27MergePartialFromCodedStreamEPN6google8protobuf2io16CodedInputStreamE
0025a34d T _ZN5Caver5Proto15EntityComponent4SwapEPS1_
0025a175 T _ZN5Caver5Proto15EntityComponent5ClearEv
0025a327 T _ZN5Caver5Proto15EntityComponent8CopyFromERKS1_
0025a065 T _ZN5Caver5Proto15EntityComponent9MergeFromERKS1_
0025a029 T _ZN5Caver5Proto15EntityComponentC1ERKS1_
00259ffd T _ZN5Caver5Proto15EntityComponentC1Ev
0025a029 T _ZN5Caver5Proto15EntityComponentC2ERKS1_
00259ffd T _ZN5Caver5Proto15EntityComponentC2Ev
0025a119 T _ZN5Caver5Proto15EntityComponentD0Ev
0025a101 T _ZN5Caver5Proto15EntityComponentD1Ev
0025a101 T _ZN5Caver5Proto15EntityComponentD2Ev
00255cd5 T _ZN5Caver5Proto15HealthComponent10SharedCtorEv
00255e5d T _ZN5Caver5Proto15HealthComponent10SharedDtorEv
00249de1 T _ZN5Caver5Proto15HealthComponent16default_instanceEv
002561c9 T _ZN5Caver5Proto15HealthComponent21CheckTypeAndMergeFromERKN6google8protobuf11MessageLiteE
00249dd1 T _ZN5Caver5Proto15HealthComponent21InitAsDefaultInstanceEv
00255ef1 T _ZN5Caver5Proto15HealthComponent27MergePartialFromCodedStreamEPN6google8protobuf2io16CodedInputStreamE
002561f3 T _ZN5Caver5Proto15HealthComponent4SwapEPS1_
00255ecd T _ZN5Caver5Proto15HealthComponent5ClearEv
002561cd T _ZN5Caver5Proto15HealthComponent8CopyFromERKS1_
00255d25 T _ZN5Caver5Proto15HealthComponent9MergeFromERKS1_
00255ce5 T _ZN5Caver5Proto15HealthComponentC1ERKS1_
00255cb1 T _ZN5Caver5Proto15HealthComponentC1Ev
00255ce5 T _ZN5Caver5Proto15HealthComponentC2ERKS1_
00255cb1 T _ZN5Caver5Proto15HealthComponentC2Ev
00255e79 T _ZN5Caver5Proto15HealthComponentD0Ev
00255e11 T _ZN5Caver5Proto15HealthComponentD1Ev
00255e11 T _ZN5Caver5Proto15HealthComponentD2Ev
0025f351 T _ZN5Caver5Proto15ParticleEmitter10SharedCtorEv
0025f5a1 T _ZN5Caver5Proto15ParticleEmitter10SharedDtorEv
0025f5f9 T _ZN5Caver5Proto15ParticleEmitter16default_instanceEv
0025fcd9 T _ZN5Caver5Proto15ParticleEmitter21CheckTypeAndMergeFromERKN6google8protobuf11MessageLiteE
0024a329 T _ZN5Caver5Proto15ParticleEmitter21InitAsDefaultInstanceEv
0025f699 T _ZN5Caver5Proto15ParticleEmitter27MergePartialFromCodedStreamEPN6google8protobuf2io16CodedInputStreamE
0025fd03 T _ZN5Caver5Proto15ParticleEmitter4SwapEPS1_
0025f65d T _ZN5Caver5Proto15ParticleEmitter5ClearEv
0025fcdd T _ZN5Caver5Proto15ParticleEmitter8CopyFromERKS1_
0025f3c9 T _ZN5Caver5Proto15ParticleEmitter9MergeFromERKS1_
0025f365 T _ZN5Caver5Proto15ParticleEmitterC1ERKS1_
0025f31d T _ZN5Caver5Proto15ParticleEmitterC1Ev
0025f365 T _ZN5Caver5Proto15ParticleEmitterC2ERKS1_
0025f31d T _ZN5Caver5Proto15ParticleEmitterC2Ev
0025f5d1 T _ZN5Caver5Proto15ParticleEmitterD0Ev
0025f545 T _ZN5Caver5Proto15ParticleEmitterD1Ev
0025f545 T _ZN5Caver5Proto15ParticleEmitterD2Ev
00268d41 T _ZN5Caver5Proto15PortalComponent10SharedCtorEv
00268f11 T _ZN5Caver5Proto15PortalComponent10SharedDtorEv
0024a86d T _ZN5Caver5Proto15PortalComponent16default_instanceEv
0026931d T _ZN5Caver5Proto15PortalComponent21CheckTypeAndMergeFromERKN6google8protobuf11MessageLiteE
0024a869 T _ZN5Caver5Proto15PortalComponent21InitAsDefaultInstanceEv
00269045 T _ZN5Caver5Proto15PortalComponent27MergePartialFromCodedStreamEPN6google8protobuf2io16CodedInputStreamE
00269347 T _ZN5Caver5Proto15PortalComponent4SwapEPS1_
00268fe5 T _ZN5Caver5Proto15PortalComponent5ClearEv
00269321 T _ZN5Caver5Proto15PortalComponent8CopyFromERKS1_
00268db9 T _ZN5Caver5Proto15PortalComponent9MergeFromERKS1_
00268d65 T _ZN5Caver5Proto15PortalComponentC1ERKS1_
00268d01 T _ZN5Caver5Proto15PortalComponentC1Ev
00268d65 T _ZN5Caver5Proto15PortalComponentC2ERKS1_
00268d01 T _ZN5Caver5Proto15PortalComponentC2Ev
00268f7d T _ZN5Caver5Proto15PortalComponentD0Ev
00268ed9 T _ZN5Caver5Proto15PortalComponentD1Ev
00268ed9 T _ZN5Caver5Proto15PortalComponentD2Ev
00257979 T _ZN5Caver5Proto15ShadowComponent10SharedCtorEv
00257b01 T _ZN5Caver5Proto15ShadowComponent10SharedDtorEv
00249ed5 T _ZN5Caver5Proto15ShadowComponent16default_instanceEv
00257e0d T _ZN5Caver5Proto15ShadowComponent21CheckTypeAndMergeFromERKN6google8protobuf11MessageLiteE
00249ec5 T _ZN5Caver5Proto15ShadowComponent21InitAsDefaultInstanceEv
00257b95 T _ZN5Caver5Proto15ShadowComponent27MergePartialFromCodedStreamEPN6google8protobuf2io16CodedInputStreamE
00257e37 T _ZN5Caver5Proto15ShadowComponent4SwapEPS1_
00257b71 T _ZN5Caver5Proto15ShadowComponent5ClearEv
00257e11 T _ZN5Caver5Proto15ShadowComponent8CopyFromERKS1_
002579c9 T _ZN5Caver5Proto15ShadowComponent9MergeFromERKS1_
00257989 T _ZN5Caver5Proto15ShadowComponentC1ERKS1_
00257955 T _ZN5Caver5Proto15ShadowComponentC1Ev
00257989 T _ZN5Caver5Proto15ShadowComponentC2ERKS1_
00257955 T _ZN5Caver5Proto15ShadowComponentC2Ev
00257b1d T _ZN5Caver5Proto15ShadowComponentD0Ev
00257ab5 T _ZN5Caver5Proto15ShadowComponentD1Ev
00257ab5 T _ZN5Caver5Proto15ShadowComponentD2Ev
0024edc9 T _ZN5Caver5Proto15SpriteComponent10SharedCtorEv
0024ef0d T _ZN5Caver5Proto15SpriteComponent10SharedDtorEv
00249ad1 T _ZN5Caver5Proto15SpriteComponent16default_instanceEv
0024f0b7 T _ZN5Caver5Proto15SpriteComponent21CheckTypeAndMergeFromERKN6google8protobuf11MessageLiteE
00249aa1 T _ZN5Caver5Proto15SpriteComponent21InitAsDefaultInstanceEv
0024efc9 T _ZN5Caver5Proto15SpriteComponent27MergePartialFromCodedStreamEPN6google8protobuf2io16CodedInputStreamE
0024f0e1 T _ZN5Caver5Proto15SpriteComponent4SwapEPS1_
0024ef99 T _ZN5Caver5Proto15SpriteComponent5ClearEv
0024f0bb T _ZN5Caver5Proto15SpriteComponent8CopyFromERKS1_
0024ee21 T _ZN5Caver5Proto15SpriteComponent9MergeFromERKS1_
0024eddd T _ZN5Caver5Proto15SpriteComponentC1ERKS1_
0024eda5 T _ZN5Caver5Proto15SpriteComponentC1Ev
0024eddd T _ZN5Caver5Proto15SpriteComponentC2ERKS1_
0024eda5 T _ZN5Caver5Proto15SpriteComponentC2Ev
0024ef45 T _ZN5Caver5Proto15SpriteComponentD0Ev
0024eed5 T _ZN5Caver5Proto15SpriteComponentD1Ev
0024eed5 T _ZN5Caver5Proto15SpriteComponentD2Ev
002411c9 T _ZN5Caver5Proto15StateProperties10SharedCtorEv
00241351 T _ZN5Caver5Proto15StateProperties10SharedDtorEv
00241379 T _ZN5Caver5Proto15StateProperties16default_instanceEv
00241531 T _ZN5Caver5Proto15StateProperties21CheckTypeAndMergeFromERKN6google8protobuf11MessageLiteE
0023edc3 T _ZN5Caver5Proto15StateProperties21InitAsDefaultInstanceEv
002413e9 T _ZN5Caver5Proto15StateProperties27MergePartialFromCodedStreamEPN6google8protobuf2io16CodedInputStreamE
0024155b T _ZN5Caver5Proto15StateProperties4SwapEPS1_
002413d5 T _ZN5Caver5Proto15StateProperties5ClearEv
00241535 T _ZN5Caver5Proto15StateProperties8CopyFromERKS1_
00241229 T _ZN5Caver5Proto15StateProperties9MergeFromERKS1_
002411d1 T _ZN5Caver5Proto15StatePropertiesC1ERKS1_
002411a1 T _ZN5Caver5Proto15StatePropertiesC1Ev
002411d1 T _ZN5Caver5Proto15StatePropertiesC2ERKS1_
002411a1 T _ZN5Caver5Proto15StatePropertiesC2Ev
00241353 T _ZN5Caver5Proto15StatePropertiesD0Ev
00241315 T _ZN5Caver5Proto15StatePropertiesD1Ev
00241315 T _ZN5Caver5Proto15StatePropertiesD2Ev
0025b8c9 T _ZN5Caver5Proto16ProgramComponent10SharedCtorEv
0025ba61 T _ZN5Caver5Proto16ProgramComponent10SharedDtorEv
0024a0d1 T _ZN5Caver5Proto16ProgramComponent16default_instanceEv
0025be39 T _ZN5Caver5Proto16ProgramComponent21CheckTypeAndMergeFromERKN6google8protobuf11MessageLiteE
0024a0c1 T _ZN5Caver5Proto16ProgramComponent21InitAsDefaultInstanceEv
0025baf5 T _ZN5Caver5Proto16ProgramComponent27MergePartialFromCodedStreamEPN6google8protobuf2io16CodedInputStreamE
0025be63 T _ZN5Caver5Proto16ProgramComponent4SwapEPS1_
0025bacd T _ZN5Caver5Proto16ProgramComponent5ClearEv
0025be3d T _ZN5Caver5Proto16ProgramComponent8CopyFromERKS1_
0025b919 T _ZN5Caver5Proto16ProgramComponent9MergeFromERKS1_
0025b8d9 T _ZN5Caver5Proto16ProgramComponentC1ERKS1_
0025b8a9 T _ZN5Caver5Proto16ProgramComponentC1Ev
0025b8d9 T _ZN5Caver5Proto16ProgramComponentC2ERKS1_
0025b8a9 T _ZN5Caver5Proto16ProgramComponentC2Ev
0025ba7d T _ZN5Caver5Proto16ProgramComponentD0Ev
0025ba15 T _ZN5Caver5Proto16ProgramComponentD1Ev
0025ba15 T _ZN5Caver5Proto16ProgramComponentD2Ev
0024d6a5 T _ZN5Caver5Proto16SceneObjectGroup10SharedCtorEv
0024d939 T _ZN5Caver5Proto16SceneObjectGroup10SharedDtorEv
0024d9b5 T _ZN5Caver5Proto16SceneObjectGroup16default_instanceEv
0024df59 T _ZN5Caver5Proto16SceneObjectGroup21CheckTypeAndMergeFromERKN6google8protobuf11MessageLiteE
00249a5d T _ZN5Caver5Proto16SceneObjectGroup21InitAsDefaultInstanceEv
0024da85 T _ZN5Caver5Proto16SceneObjectGroup27MergePartialFromCodedStreamEPN6google8protobuf2io16CodedInputStreamE
0024df83 T _ZN5Caver5Proto16SceneObjectGroup4SwapEPS1_
0024da31 T _ZN5Caver5Proto16SceneObjectGroup5ClearEv
0024df5d T _ZN5Caver5Proto16SceneObjectGroup8CopyFromERKS1_
0024d72d T _ZN5Caver5Proto16SceneObjectGroup9MergeFromERKS1_
0024d6c1 T _ZN5Caver5Proto16SceneObjectGroupC1ERKS1_
0024d661 T _ZN5Caver5Proto16SceneObjectGroupC1Ev
0024d6c1 T _ZN5Caver5Proto16SceneObjectGroupC2ERKS1_
0024d661 T _ZN5Caver5Proto16SceneObjectGroupC2Ev
0024d98d T _ZN5Caver5Proto16SceneObjectGroupD0Ev
0024d8ed T _ZN5Caver5Proto16SceneObjectGroupD1Ev
0024d8ed T _ZN5Caver5Proto16SceneObjectGroupD2Ev
0022d9a9 T _ZN5Caver5Proto17ImageType_IsValidEi
0026ae61 T _ZN5Caver5Proto17ItemDropComponent10SharedCtorEv
0026b129 T _ZN5Caver5Proto17ItemDropComponent10SharedDtorEv
0024a951 T _ZN5Caver5Proto17ItemDropComponent16default_instanceEv
0026b70d T _ZN5Caver5Proto17ItemDropComponent21CheckTypeAndMergeFromERKN6google8protobuf11MessageLiteE
0024a94d T _ZN5Caver5Proto17ItemDropComponent21InitAsDefaultInstanceEv
0026b28d T _ZN5Caver5Proto17ItemDropComponent27MergePartialFromCodedStreamEPN6google8protobuf2io16CodedInputStreamE
0026b737 T _ZN5Caver5Proto17ItemDropComponent4SwapEPS1_
0026b211 T _ZN5Caver5Proto17ItemDropComponent5ClearEv
0026b711 T _ZN5Caver5Proto17ItemDropComponent8CopyFromERKS1_
0026aef9 T _ZN5Caver5Proto17ItemDropComponent9MergeFromERKS1_
0026ae85 T _ZN5Caver5Proto17ItemDropComponentC1ERKS1_
0026ae15 T _ZN5Caver5Proto17ItemDropComponentC1Ev
0026ae85 T _ZN5Caver5Proto17ItemDropComponentC2ERKS1_
0026ae15 T _ZN5Caver5Proto17ItemDropComponentC2Ev
0026b195 T _ZN5Caver5Proto17ItemDropComponentD0Ev
0026b0dd T _ZN5Caver5Proto17ItemDropComponentD1Ev
0026b0dd T _ZN5Caver5Proto17ItemDropComponentD2Ev
00238f3d T _ZN5Caver5Proto17Item_Type_IsValidEi
00260c05 T _ZN5Caver5Proto17ParticleComponent10SharedCtorEv
00260d69 T _ZN5Caver5Proto17ParticleComponent10SharedDtorEv
0024a381 T _ZN5Caver5Proto17ParticleComponent16default_instanceEv
00260fbf T _ZN5Caver5Proto17ParticleComponent21CheckTypeAndMergeFromERKN6google8protobuf11MessageLiteE
0024a37d T _ZN5Caver5Proto17ParticleComponent21InitAsDefaultInstanceEv
00260e31 T _ZN5Caver5Proto17ParticleComponent27MergePartialFromCodedStreamEPN6google8protobuf2io16CodedInputStreamE
00260fe9 T _ZN5Caver5Proto17ParticleComponent4SwapEPS1_
00260df9 T _ZN5Caver5Proto17ParticleComponent5ClearEv
00260fc3 T _ZN5Caver5Proto17ParticleComponent8CopyFromERKS1_
00260c61 T _ZN5Caver5Proto17ParticleComponent9MergeFromERKS1_
00260c1d T _ZN5Caver5Proto17ParticleComponentC1ERKS1_
00260be1 T _ZN5Caver5Proto17ParticleComponentC1Ev
00260c1d T _ZN5Caver5Proto17ParticleComponentC2ERKS1_
00260be1 T _ZN5Caver5Proto17ParticleComponentC2Ev
00260da1 T _ZN5Caver5Proto17ParticleComponentD0Ev
00260d31 T _ZN5Caver5Proto17ParticleComponentD1Ev
00260d31 T _ZN5Caver5Proto17ParticleComponentD2Ev
0024ad59 T _ZN5Caver5Proto18DamageType_IsValidEi
0026c779 T _ZN5Caver5Proto18MagicBoltComponent10SharedCtorEv
0026c929 T _ZN5Caver5Proto18MagicBoltComponent10SharedDtorEv
0024aa11 T _ZN5Caver5Proto18MagicBoltComponent16default_instanceEv
0026cd7d T _ZN5Caver5Proto18MagicBoltComponent21CheckTypeAndMergeFromERKN6google8protobuf11MessageLiteE
0024aa01 T _ZN5Caver5Proto18MagicBoltComponent21InitAsDefaultInstanceEv
0026c9c1 T _ZN5Caver5Proto18MagicBoltComponent27MergePartialFromCodedStreamEPN6google8protobuf2io16CodedInputStreamE
0026cda7 T _ZN5Caver5Proto18MagicBoltComponent4SwapEPS1_
0026c999 T _ZN5Caver5Proto18MagicBoltComponent5ClearEv
0026cd81 T _ZN5Caver5Proto18MagicBoltComponent8CopyFromERKS1_
0026c7c9 T _ZN5Caver5Proto18MagicBoltComponent9MergeFromERKS1_
0026c789 T _ZN5Caver5Proto18MagicBoltComponentC1ERKS1_
0026c755 T _ZN5Caver5Proto18MagicBoltComponentC1Ev
0026c789 T _ZN5Caver5Proto18MagicBoltComponentC2ERKS1_
0026c755 T _ZN5Caver5Proto18MagicBoltComponentC2Ev
0026c945 T _ZN5Caver5Proto18MagicBoltComponentD0Ev
0026c8dd T _ZN5Caver5Proto18MagicBoltComponentD1Ev
0026c8dd T _ZN5Caver5Proto18MagicBoltComponentD2Ev
0026e84d T _ZN5Caver5Proto18MagicBombComponent10SharedCtorEv
0026e9a1 T _ZN5Caver5Proto18MagicBombComponent10SharedDtorEv
0024ab61 T _ZN5Caver5Proto18MagicBombComponent16default_instanceEv
0026ebb5 T _ZN5Caver5Proto18MagicBombComponent21CheckTypeAndMergeFromERKN6google8protobuf11MessageLiteE
0024ab51 T _ZN5Caver5Proto18MagicBombComponent21InitAsDefaultInstanceEv
0026ea29 T _ZN5Caver5Proto18MagicBombComponent27MergePartialFromCodedStreamEPN6google8protobuf2io16CodedInputStreamE
0026ebdf T _ZN5Caver5Proto18MagicBombComponent4SwapEPS1_
0026ea09 T _ZN5Caver5Proto18MagicBombComponent5ClearEv
0026ebb9 T _ZN5Caver5Proto18MagicBombComponent8CopyFromERKS1_
0026e891 T _ZN5Caver5Proto18MagicBombComponent9MergeFromERKS1_
0026e859 T _ZN5Caver5Proto18MagicBombComponentC1ERKS1_
0026e835 T _ZN5Caver5Proto18MagicBombComponentC1Ev
0026e859 T _ZN5Caver5Proto18MagicBombComponentC2ERKS1_
0026e835 T _ZN5Caver5Proto18MagicBombComponentC2Ev
0026e9bd T _ZN5Caver5Proto18MagicBombComponentD0Ev
0026e955 T _ZN5Caver5Proto18MagicBombComponentD1Ev
0026e955 T _ZN5Caver5Proto18MagicBombComponentD2Ev
0022fecd T _ZN5Caver5Proto18Texture_Subtexture10SharedCtorEv
00230091 T _ZN5Caver5Proto18Texture_Subtexture10SharedDtorEv
0023010d T _ZN5Caver5Proto18Texture_Subtexture16default_instanceEv
0023048d T _ZN5Caver5Proto18Texture_Subtexture21CheckTypeAndMergeFromERKN6google8protobuf11MessageLiteE
0022d8c1 T _ZN5Caver5Proto18Texture_Subtexture21InitAsDefaultInstanceEv
002301c5 T _ZN5Caver5Proto18Texture_Subtexture27MergePartialFromCodedStreamEPN6google8protobuf2io16CodedInputStreamE
002304b7 T _ZN5Caver5Proto18Texture_Subtexture4SwapEPS1_
00230171 T _ZN5Caver5Proto18Texture_Subtexture5ClearEv
00230491 T _ZN5Caver5Proto18Texture_Subtexture8CopyFromERKS1_
0022ff35 T _ZN5Caver5Proto18Texture_Subtexture9MergeFromERKS1_
0022fee9 T _ZN5Caver5Proto18Texture_SubtextureC1ERKS1_
0022fea1 T _ZN5Caver5Proto18Texture_SubtextureC1Ev
0022fee9 T _ZN5Caver5Proto18Texture_SubtextureC2ERKS1_
0022fea1 T _ZN5Caver5Proto18Texture_SubtextureC2Ev
002300e5 T _ZN5Caver5Proto18Texture_SubtextureD0Ev
00230059 T _ZN5Caver5Proto18Texture_SubtextureD1Ev
00230059 T _ZN5Caver5Proto18Texture_SubtextureD2Ev
0026a1fd T _ZN5Caver5Proto18TouchableComponent10SharedCtorEv
0026a369 T _ZN5Caver5Proto18TouchableComponent10SharedDtorEv
0024a921 T _ZN5Caver5Proto18TouchableComponent16default_instanceEv
0026a611 T _ZN5Caver5Proto18TouchableComponent21CheckTypeAndMergeFromERKN6google8protobuf11MessageLiteE
0024a911 T _ZN5Caver5Proto18TouchableComponent21InitAsDefaultInstanceEv
0026a3f1 T _ZN5Caver5Proto18TouchableComponent27MergePartialFromCodedStreamEPN6google8protobuf2io16CodedInputStreamE
0026a63b T _ZN5Caver5Proto18TouchableComponent4SwapEPS1_
0026a3d1 T _ZN5Caver5Proto18TouchableComponent5ClearEv
0026a615 T _ZN5Caver5Proto18TouchableComponent8CopyFromERKS1_
0026a245 T _ZN5Caver5Proto18TouchableComponent9MergeFromERKS1_
0026a209 T _ZN5Caver5Proto18TouchableComponentC1ERKS1_
0026a1e1 T _ZN5Caver5Proto18TouchableComponentC1Ev
0026a209 T _ZN5Caver5Proto18TouchableComponentC2ERKS1_
0026a1e1 T _ZN5Caver5Proto18TouchableComponentC2Ev
0026a385 T _ZN5Caver5Proto18TouchableComponentD0Ev
0026a31d T _ZN5Caver5Proto18TouchableComponentD1Ev
0026a31d T _ZN5Caver5Proto18TouchableComponentD2Ev
00253865 T _ZN5Caver5Proto18WaterMeshComponent10SharedCtorEv
00253a19 T _ZN5Caver5Proto18WaterMeshComponent10SharedDtorEv
00249ce5 T _ZN5Caver5Proto18WaterMeshComponent16default_instanceEv
00253ea5 T _ZN5Caver5Proto18WaterMeshComponent21CheckTypeAndMergeFromERKN6google8protobuf11MessageLiteE
00249cd1 T _ZN5Caver5Proto18WaterMeshComponent21InitAsDefaultInstanceEv
00253ad1 T _ZN5Caver5Proto18WaterMeshComponent27MergePartialFromCodedStreamEPN6google8protobuf2io16CodedInputStreamE
00253ecf T _ZN5Caver5Proto18WaterMeshComponent4SwapEPS1_
00253a9d T _ZN5Caver5Proto18WaterMeshComponent5ClearEv
00253ea9 T _ZN5Caver5Proto18WaterMeshComponent8CopyFromERKS1_
002538b5 T _ZN5Caver5Proto18WaterMeshComponent9MergeFromERKS1_
00253875 T _ZN5Caver5Proto18WaterMeshComponentC1ERKS1_
00253841 T _ZN5Caver5Proto18WaterMeshComponentC1Ev
00253875 T _ZN5Caver5Proto18WaterMeshComponentC2ERKS1_
00253841 T _ZN5Caver5Proto18WaterMeshComponentC2Ev
00253a49 T _ZN5Caver5Proto18WaterMeshComponentD0Ev
002539e1 T _ZN5Caver5Proto18WaterMeshComponentD1Ev
002539e1 T _ZN5Caver5Proto18WaterMeshComponentD2Ev
0025eb8d T _ZN5Caver5Proto19BackgroundComponent10SharedCtorEv
0025ecd1 T _ZN5Caver5Proto19BackgroundComponent10SharedDtorEv
0024a2c1 T _ZN5Caver5Proto19BackgroundComponent16default_instanceEv
0025ee7b T _ZN5Caver5Proto19BackgroundComponent21CheckTypeAndMergeFromERKN6google8protobuf11MessageLiteE
0024a2bd T _ZN5Caver5Proto19BackgroundComponent21InitAsDefaultInstanceEv
0025ed8d T _ZN5Caver5Proto19BackgroundComponent27MergePartialFromCodedStreamEPN6google8protobuf2io16CodedInputStreamE
0025eea5 T _ZN5Caver5Proto19BackgroundComponent4SwapEPS1_
0025ed5d T _ZN5Caver5Proto19BackgroundComponent5ClearEv
0025ee7f T _ZN5Caver5Proto19BackgroundComponent8CopyFromERKS1_
0025ebe5 T _ZN5Caver5Proto19BackgroundComponent9MergeFromERKS1_
0025eba1 T _ZN5Caver5Proto19BackgroundComponentC1ERKS1_
0025eb69 T _ZN5Caver5Proto19BackgroundComponentC1Ev
0025eba1 T _ZN5Caver5Proto19BackgroundComponentC2ERKS1_
0025eb69 T _ZN5Caver5Proto19BackgroundComponentC2Ev
0025ed09 T _ZN5Caver5Proto19BackgroundComponentD0Ev
0025ec99 T _ZN5Caver5Proto19BackgroundComponentD1Ev
0025ec99 T _ZN5Caver5Proto19BackgroundComponentD2Ev
0025e3e5 T _ZN5Caver5Proto19EntityInfoComponent10SharedCtorEv
0025e529 T _ZN5Caver5Proto19EntityInfoComponent10SharedDtorEv
0024a255 T _ZN5Caver5Proto19EntityInfoComponent16default_instanceEv
0025e6d3 T _ZN5Caver5Proto19EntityInfoComponent21CheckTypeAndMergeFromERKN6google8protobuf11MessageLiteE
0024a251 T _ZN5Caver5Proto19EntityInfoComponent21InitAsDefaultInstanceEv
0025e5e5 T _ZN5Caver5Proto19EntityInfoComponent27MergePartialFromCodedStreamEPN6google8protobuf2io16CodedInputStreamE
0025e6fd T _ZN5Caver5Proto19EntityInfoComponent4SwapEPS1_
0025e5b5 T _ZN5Caver5Proto19EntityInfoComponent5ClearEv
0025e6d7 T _ZN5Caver5Proto19EntityInfoComponent8CopyFromERKS1_
0025e43d T _ZN5Caver5Proto19EntityInfoComponent9MergeFromERKS1_
0025e3f9 T _ZN5Caver5Proto19EntityInfoComponentC1ERKS1_
0025e3c1 T _ZN5Caver5Proto19EntityInfoComponentC1Ev
0025e3f9 T _ZN5Caver5Proto19EntityInfoComponentC2ERKS1_
0025e3c1 T _ZN5Caver5Proto19EntityInfoComponentC2Ev
0025e561 T _ZN5Caver5Proto19EntityInfoComponentD0Ev
0025e4f1 T _ZN5Caver5Proto19EntityInfoComponentD1Ev
0025e4f1 T _ZN5Caver5Proto19EntityInfoComponentD2Ev
0026df0d T _ZN5Caver5Proto19FireBreathComponent10SharedCtorEv
0026e095 T _ZN5Caver5Proto19FireBreathComponent10SharedDtorEv
0024aaf5 T _ZN5Caver5Proto19FireBreathComponent16default_instanceEv
0026e401 T _ZN5Caver5Proto19FireBreathComponent21CheckTypeAndMergeFromERKN6google8protobuf11MessageLiteE
0024aae5 T _ZN5Caver5Proto19FireBreathComponent21InitAsDefaultInstanceEv
0026e129 T _ZN5Caver5Proto19FireBreathComponent27MergePartialFromCodedStreamEPN6google8protobuf2io16CodedInputStreamE
0026e42b T _ZN5Caver5Proto19FireBreathComponent4SwapEPS1_
0026e105 T _ZN5Caver5Proto19FireBreathComponent5ClearEv
0026e405 T _ZN5Caver5Proto19FireBreathComponent8CopyFromERKS1_
0026df5d T _ZN5Caver5Proto19FireBreathComponent9MergeFromERKS1_
0026df1d T _ZN5Caver5Proto19FireBreathComponentC1ERKS1_
0026dee9 T _ZN5Caver5Proto19FireBreathComponentC1Ev
0026df1d T _ZN5Caver5Proto19FireBreathComponentC2ERKS1_
0026dee9 T _ZN5Caver5Proto19FireBreathComponentC2Ev
0026e0b1 T _ZN5Caver5Proto19FireBreathComponentD0Ev
0026e049 T _ZN5Caver5Proto19FireBreathComponentD1Ev
0026e049 T _ZN5Caver5Proto19FireBreathComponentD2Ev
002519fd T _ZN5Caver5Proto19GroundMeshComponent10SharedCtorEv
00251d05 T _ZN5Caver5Proto19GroundMeshComponent10SharedDtorEv
00249c39 T _ZN5Caver5Proto19GroundMeshComponent16default_instanceEv
0025288d T _ZN5Caver5Proto19GroundMeshComponent21CheckTypeAndMergeFromERKN6google8protobuf11MessageLiteE
00249c25 T _ZN5Caver5Proto19GroundMeshComponent21InitAsDefaultInstanceEv
00251f09 T _ZN5Caver5Proto19GroundMeshComponent27MergePartialFromCodedStreamEPN6google8protobuf2io16CodedInputStreamE
002528b7 T _ZN5Caver5Proto19GroundMeshComponent4SwapEPS1_
00251e29 T _ZN5Caver5Proto19GroundMeshComponent5ClearEv
00252891 T _ZN5Caver5Proto19GroundMeshComponent8CopyFromERKS1_
00251ad1 T _ZN5Caver5Proto19GroundMeshComponent9MergeFromERKS1_
00251a25 T _ZN5Caver5Proto19GroundMeshComponentC1ERKS1_
00251989 T _ZN5Caver5Proto19GroundMeshComponentC1Ev
00251a25 T _ZN5Caver5Proto19GroundMeshComponentC2ERKS1_
00251989 T _ZN5Caver5Proto19GroundMeshComponentC2Ev
00251d85 T _ZN5Caver5Proto19GroundMeshComponentD0Ev
00251c91 T _ZN5Caver5Proto19GroundMeshComponentD1Ev
00251c91 T _ZN5Caver5Proto19GroundMeshComponentD2Ev
0025e775 T _ZN5Caver5Proto19HeroEntityComponent10SharedCtorEv
0025e8c9 T _ZN5Caver5Proto19HeroEntityComponent10SharedDtorEv
0024a291 T _ZN5Caver5Proto19HeroEntityComponent16default_instanceEv
0025eadd T _ZN5Caver5Proto19HeroEntityComponent21CheckTypeAndMergeFromERKN6google8protobuf11MessageLiteE
0024a281 T _ZN5Caver5Proto19HeroEntityComponent21InitAsDefaultInstanceEv
0025e951 T _ZN5Caver5Proto19HeroEntityComponent27MergePartialFromCodedStreamEPN6google8protobuf2io16CodedInputStreamE
0025eb07 T _ZN5Caver5Proto19HeroEntityComponent4SwapEPS1_
0025e931 T _ZN5Caver5Proto19HeroEntityComponent5ClearEv
0025eae1 T _ZN5Caver5Proto19HeroEntityComponent8CopyFromERKS1_
0025e7b9 T _ZN5Caver5Proto19HeroEntityComponent9MergeFromERKS1_
0025e781 T _ZN5Caver5Proto19HeroEntityComponentC1ERKS1_
0025e75d T _ZN5Caver5Proto19HeroEntityComponentC1Ev
0025e781 T _ZN5Caver5Proto19HeroEntityComponentC2ERKS1_
0025e75d T _ZN5Caver5Proto19HeroEntityComponentC2Ev
0025e8e5 T _ZN5Caver5Proto19HeroEntityComponentD0Ev
0025e87d T _ZN5Caver5Proto19HeroEntityComponentD1Ev
0025e87d T _ZN5Caver5Proto19HeroEntityComponentD2Ev
0022d9b5 T _ZN5Caver5Proto19PixelFormat_IsValidEi
0025ef1d T _ZN5Caver5Proto19PropertiesComponent10SharedCtorEv
0025f071 T _ZN5Caver5Proto19PropertiesComponent10SharedDtorEv
0024a2fd T _ZN5Caver5Proto19PropertiesComponent16default_instanceEv
0025f285 T _ZN5Caver5Proto19PropertiesComponent21CheckTypeAndMergeFromERKN6google8protobuf11MessageLiteE
0024a2ed T _ZN5Caver5Proto19PropertiesComponent21InitAsDefaultInstanceEv
0025f0f9 T _ZN5Caver5Proto19PropertiesComponent27MergePartialFromCodedStreamEPN6google8protobuf2io16CodedInputStreamE
0025f2af T _ZN5Caver5Proto19PropertiesComponent4SwapEPS1_
0025f0d9 T _ZN5Caver5Proto19PropertiesComponent5ClearEv
0025f289 T _ZN5Caver5Proto19PropertiesComponent8CopyFromERKS1_
0025ef61 T _ZN5Caver5Proto19PropertiesComponent9MergeFromERKS1_
0025ef29 T _ZN5Caver5Proto19PropertiesComponentC1ERKS1_
0025ef05 T _ZN5Caver5Proto19PropertiesComponentC1Ev
0025ef29 T _ZN5Caver5Proto19PropertiesComponentC2ERKS1_
0025ef05 T _ZN5Caver5Proto19PropertiesComponentC2Ev
0025f08d T _ZN5Caver5Proto19PropertiesComponentD0Ev
0025f025 T _ZN5Caver5Proto19PropertiesComponentD1Ev
0025f025 T _ZN5Caver5Proto19PropertiesComponentD2Ev
00261b55 T _ZN5Caver5Proto19SimpleGlowComponent10SharedCtorEv
00261d45 T _ZN5Caver5Proto19SimpleGlowComponent10SharedDtorEv
0024a40d T _ZN5Caver5Proto19SimpleGlowComponent16default_instanceEv
002622d9 T _ZN5Caver5Proto19SimpleGlowComponent21CheckTypeAndMergeFromERKN6google8protobuf11MessageLiteE
0024a3f9 T _ZN5Caver5Proto19SimpleGlowComponent21InitAsDefaultInstanceEv
00261e09 T _ZN5Caver5Proto19SimpleGlowComponent27MergePartialFromCodedStreamEPN6google8protobuf2io16CodedInputStreamE
00262303 T _ZN5Caver5Proto19SimpleGlowComponent4SwapEPS1_
00261dc9 T _ZN5Caver5Proto19SimpleGlowComponent5ClearEv
002622dd T _ZN5Caver5Proto19SimpleGlowComponent8CopyFromERKS1_
00261ba5 T _ZN5Caver5Proto19SimpleGlowComponent9MergeFromERKS1_
00261b65 T _ZN5Caver5Proto19SimpleGlowComponentC1ERKS1_
00261b31 T _ZN5Caver5Proto19SimpleGlowComponentC1Ev
00261b65 T _ZN5Caver5Proto19SimpleGlowComponentC2ERKS1_
00261b31 T _ZN5Caver5Proto19SimpleGlowComponentC2Ev
00261d75 T _ZN5Caver5Proto19SimpleGlowComponentD0Ev
00261d0d T _ZN5Caver5Proto19SimpleGlowComponentD1Ev
00261d0d T _ZN5Caver5Proto19SimpleGlowComponentD2Ev
002693dd T _ZN5Caver5Proto19SpawnPointComponent10SharedCtorEv
00269549 T _ZN5Caver5Proto19SpawnPointComponent10SharedDtorEv
0024a8a9 T _ZN5Caver5Proto19SpawnPointComponent16default_instanceEv
0026981d T _ZN5Caver5Proto19SpawnPointComponent21CheckTypeAndMergeFromERKN6google8protobuf11MessageLiteE
0024a899 T _ZN5Caver5Proto19SpawnPointComponent21InitAsDefaultInstanceEv
002695d1 T _ZN5Caver5Proto19SpawnPointComponent27MergePartialFromCodedStreamEPN6google8protobuf2io16CodedInputStreamE
00269847 T _ZN5Caver5Proto19SpawnPointComponent4SwapEPS1_
002695b1 T _ZN5Caver5Proto19SpawnPointComponent5ClearEv
00269821 T _ZN5Caver5Proto19SpawnPointComponent8CopyFromERKS1_
00269425 T _ZN5Caver5Proto19SpawnPointComponent9MergeFromERKS1_
002693e9 T _ZN5Caver5Proto19SpawnPointComponentC1ERKS1_
002693c1 T _ZN5Caver5Proto19SpawnPointComponentC1Ev
002693e9 T _ZN5Caver5Proto19SpawnPointComponentC2ERKS1_
002693c1 T _ZN5Caver5Proto19SpawnPointComponentC2Ev
00269565 T _ZN5Caver5Proto19SpawnPointComponentD0Ev
002694fd T _ZN5Caver5Proto19SpawnPointComponentD1Ev
002694fd T _ZN5Caver5Proto19SpawnPointComponentD2Ev
00268235 T _ZN5Caver5Proto19WeaponGlowComponent10SharedCtorEv
002683ed T _ZN5Caver5Proto19WeaponGlowComponent10SharedDtorEv
0024a801 T _ZN5Caver5Proto19WeaponGlowComponent16default_instanceEv
00268851 T _ZN5Caver5Proto19WeaponGlowComponent21CheckTypeAndMergeFromERKN6google8protobuf11MessageLiteE
0024a7ed T _ZN5Caver5Proto19WeaponGlowComponent21InitAsDefaultInstanceEv
002684a5 T _ZN5Caver5Proto19WeaponGlowComponent27MergePartialFromCodedStreamEPN6google8protobuf2io16CodedInputStreamE
0026887b T _ZN5Caver5Proto19WeaponGlowComponent4SwapEPS1_
00268471 T _ZN5Caver5Proto19WeaponGlowComponent5ClearEv
00268855 T _ZN5Caver5Proto19WeaponGlowComponent8CopyFromERKS1_
00268285 T _ZN5Caver5Proto19WeaponGlowComponent9MergeFromERKS1_
00268245 T _ZN5Caver5Proto19WeaponGlowComponentC1ERKS1_
00268211 T _ZN5Caver5Proto19WeaponGlowComponentC1Ev
00268245 T _ZN5Caver5Proto19WeaponGlowComponentC2ERKS1_
00268211 T _ZN5Caver5Proto19WeaponGlowComponentC2Ev
0026841d T _ZN5Caver5Proto19WeaponGlowComponentD0Ev
002683b5 T _ZN5Caver5Proto19WeaponGlowComponentD1Ev
002683b5 T _ZN5Caver5Proto19WeaponGlowComponentD2Ev
00261075 T _ZN5Caver5Proto20FireEmitterComponent10SharedCtorEv
002612d1 T _ZN5Caver5Proto20FireEmitterComponent10SharedDtorEv
0024a3cd T _ZN5Caver5Proto20FireEmitterComponent16default_instanceEv
00261a6d T _ZN5Caver5Proto20FireEmitterComponent21CheckTypeAndMergeFromERKN6google8protobuf11MessageLiteE
0024a3ad T _ZN5Caver5Proto20FireEmitterComponent21InitAsDefaultInstanceEv
002613c1 T _ZN5Caver5Proto20FireEmitterComponent27MergePartialFromCodedStreamEPN6google8protobuf2io16CodedInputStreamE
00261a97 T _ZN5Caver5Proto20FireEmitterComponent4SwapEPS1_
00261369 T _ZN5Caver5Proto20FireEmitterComponent5ClearEv
00261a71 T _ZN5Caver5Proto20FireEmitterComponent8CopyFromERKS1_
002610c5 T _ZN5Caver5Proto20FireEmitterComponent9MergeFromERKS1_
00261085 T _ZN5Caver5Proto20FireEmitterComponentC1ERKS1_
00261051 T _ZN5Caver5Proto20FireEmitterComponentC1Ev
00261085 T _ZN5Caver5Proto20FireEmitterComponentC2ERKS1_
00261051 T _ZN5Caver5Proto20FireEmitterComponentC2Ev
00261315 T _ZN5Caver5Proto20FireEmitterComponentD0Ev
00261299 T _ZN5Caver5Proto20FireEmitterComponentD1Ev
00261299 T _ZN5Caver5Proto20FireEmitterComponentD2Ev
002369df T _ZN5Caver5Proto20MapNode_Type_IsValidEi
0026b811 T _ZN5Caver5Proto20OverlayTextComponent10SharedCtorEv
0026ba41 T _ZN5Caver5Proto20OverlayTextComponent10SharedDtorEv
0024a995 T _ZN5Caver5Proto20OverlayTextComponent16default_instanceEv
0026bfa9 T _ZN5Caver5Proto20OverlayTextComponent21CheckTypeAndMergeFromERKN6google8protobuf11MessageLiteE
0024a97f T _ZN5Caver5Proto20OverlayTextComponent21InitAsDefaultInstanceEv
0026bb99 T _ZN5Caver5Proto20OverlayTextComponent27MergePartialFromCodedStreamEPN6google8protobuf2io16CodedInputStreamE
0026bfd3 T _ZN5Caver5Proto20OverlayTextComponent4SwapEPS1_
0026bb25 T _ZN5Caver5Proto20OverlayTextComponent5ClearEv
0026bfad T _ZN5Caver5Proto20OverlayTextComponent8CopyFromERKS1_
0026b889 T _ZN5Caver5Proto20OverlayTextComponent9MergeFromERKS1_
0026b835 T _ZN5Caver5Proto20OverlayTextComponentC1ERKS1_
0026b7d1 T _ZN5Caver5Proto20OverlayTextComponentC1Ev
0026b835 T _ZN5Caver5Proto20OverlayTextComponentC2ERKS1_
0026b7d1 T _ZN5Caver5Proto20OverlayTextComponentC2Ev
0026bac1 T _ZN5Caver5Proto20OverlayTextComponentD0Ev
0026ba09 T _ZN5Caver5Proto20OverlayTextComponentD1Ev
0026ba09 T _ZN5Caver5Proto20OverlayTextComponentD2Ev
00257ed5 T _ZN5Caver5Proto20SoundEffectComponent10SharedCtorEv
00258055 T _ZN5Caver5Proto20SoundEffectComponent10SharedDtorEv
00249f05 T _ZN5Caver5Proto20SoundEffectComponent16default_instanceEv
0025830d T _ZN5Caver5Proto20SoundEffectComponent21CheckTypeAndMergeFromERKN6google8protobuf11MessageLiteE
00249f01 T _ZN5Caver5Proto20SoundEffectComponent21InitAsDefaultInstanceEv
00258125 T _ZN5Caver5Proto20SoundEffectComponent27MergePartialFromCodedStreamEPN6google8protobuf2io16CodedInputStreamE
00258337 T _ZN5Caver5Proto20SoundEffectComponent4SwapEPS1_
002580e9 T _ZN5Caver5Proto20SoundEffectComponent5ClearEv
00258311 T _ZN5Caver5Proto20SoundEffectComponent8CopyFromERKS1_
00257f3d T _ZN5Caver5Proto20SoundEffectComponent9MergeFromERKS1_
00257ef1 T _ZN5Caver5Proto20SoundEffectComponentC1ERKS1_
00257ea9 T _ZN5Caver5Proto20SoundEffectComponentC1Ev
00257ef1 T _ZN5Caver5Proto20SoundEffectComponentC2ERKS1_
00257ea9 T _ZN5Caver5Proto20SoundEffectComponentC2Ev
0025808d T _ZN5Caver5Proto20SoundEffectComponentD0Ev
0025801d T _ZN5Caver5Proto20SoundEffectComponentD1Ev
0025801d T _ZN5Caver5Proto20SoundEffectComponentD2Ev
0026890d T _ZN5Caver5Proto20WeaponTrailComponent10SharedCtorEv
00268a61 T _ZN5Caver5Proto20WeaponTrailComponent10SharedDtorEv
0024a83d T _ZN5Caver5Proto20WeaponTrailComponent16default_instanceEv
00268c75 T _ZN5Caver5Proto20WeaponTrailComponent21CheckTypeAndMergeFromERKN6google8protobuf11MessageLiteE
0024a82d T _ZN5Caver5Proto20WeaponTrailComponent21InitAsDefaultInstanceEv
00268ae9 T _ZN5Caver5Proto20WeaponTrailComponent27MergePartialFromCodedStreamEPN6google8protobuf2io16CodedInputStreamE
00268c9f T _ZN5Caver5Proto20WeaponTrailComponent4SwapEPS1_
00268ac9 T _ZN5Caver5Proto20WeaponTrailComponent5ClearEv
00268c79 T _ZN5Caver5Proto20WeaponTrailComponent8CopyFromERKS1_
00268951 T _ZN5Caver5Proto20WeaponTrailComponent9MergeFromERKS1_
00268919 T _ZN5Caver5Proto20WeaponTrailComponentC1ERKS1_
002688f5 T _ZN5Caver5Proto20WeaponTrailComponentC1Ev
00268919 T _ZN5Caver5Proto20WeaponTrailComponentC2ERKS1_
002688f5 T _ZN5Caver5Proto20WeaponTrailComponentC2Ev
00268a7d T _ZN5Caver5Proto20WeaponTrailComponentD0Ev
00268a15 T _ZN5Caver5Proto20WeaponTrailComponentD1Ev
00268a15 T _ZN5Caver5Proto20WeaponTrailComponentD2Ev
0025db75 T _ZN5Caver5Proto21EntityActionComponent10SharedCtorEv
0025dcc9 T _ZN5Caver5Proto21EntityActionComponent10SharedDtorEv
0024a1f5 T _ZN5Caver5Proto21EntityActionComponent16default_instanceEv
0025dedd T _ZN5Caver5Proto21EntityActionComponent21CheckTypeAndMergeFromERKN6google8protobuf11MessageLiteE
0024a1e5 T _ZN5Caver5Proto21EntityActionComponent21InitAsDefaultInstanceEv
0025dd51 T _ZN5Caver5Proto21EntityActionComponent27MergePartialFromCodedStreamEPN6google8protobuf2io16CodedInputStreamE
0025df07 T _ZN5Caver5Proto21EntityActionComponent4SwapEPS1_
0025dd31 T _ZN5Caver5Proto21EntityActionComponent5ClearEv
0025dee1 T _ZN5Caver5Proto21EntityActionComponent8CopyFromERKS1_
0025dbb9 T _ZN5Caver5Proto21EntityActionComponent9MergeFromERKS1_
0025db81 T _ZN5Caver5Proto21EntityActionComponentC1ERKS1_
0025db5d T _ZN5Caver5Proto21EntityActionComponentC1Ev
0025db81 T _ZN5Caver5Proto21EntityActionComponentC2ERKS1_
0025db5d T _ZN5Caver5Proto21EntityActionComponentC2Ev
0025dce5 T _ZN5Caver5Proto21EntityActionComponentD0Ev
0025dc7d T _ZN5Caver5Proto21EntityActionComponentD1Ev
0025dc7d T _ZN5Caver5Proto21EntityActionComponentD2Ev
0023ee61 T _ZN5Caver5Proto21PlayerProfile_Counter10SharedCtorEv
0023efc1 T _ZN5Caver5Proto21PlayerProfile_Counter10SharedDtorEv
0023f021 T _ZN5Caver5Proto21PlayerProfile_Counter16default_instanceEv
0023f275 T _ZN5Caver5Proto21PlayerProfile_Counter21CheckTypeAndMergeFromERKN6google8protobuf11MessageLiteE
0023edc1 T _ZN5Caver5Proto21PlayerProfile_Counter21InitAsDefaultInstanceEv
0023f0b5 T _ZN5Caver5Proto21PlayerProfile_Counter27MergePartialFromCodedStreamEPN6google8protobuf2io16CodedInputStreamE
0023f29f T _ZN5Caver5Proto21PlayerProfile_Counter4SwapEPS1_
0023f07d T _ZN5Caver5Proto21PlayerProfile_Counter5ClearEv
0023f279 T _ZN5Caver5Proto21PlayerProfile_Counter8CopyFromERKS1_
0023eebd T _ZN5Caver5Proto21PlayerProfile_Counter9MergeFromERKS1_
0023ee79 T _ZN5Caver5Proto21PlayerProfile_CounterC1ERKS1_
0023ee3d T _ZN5Caver5Proto21PlayerProfile_CounterC1Ev
0023ee79 T _ZN5Caver5Proto21PlayerProfile_CounterC2ERKS1_
0023ee3d T _ZN5Caver5Proto21PlayerProfile_CounterC2Ev
0023eff9 T _ZN5Caver5Proto21PlayerProfile_CounterD0Ev
0023ef89 T _ZN5Caver5Proto21PlayerProfile_CounterD1Ev
0023ef89 T _ZN5Caver5Proto21PlayerProfile_CounterD2Ev
0026c071 T _ZN5Caver5Proto21PortalEffectComponent10SharedCtorEv
0026c225 T _ZN5Caver5Proto21PortalEffectComponent10SharedDtorEv
0024a9d5 T _ZN5Caver5Proto21PortalEffectComponent16default_instanceEv
0026c6b1 T _ZN5Caver5Proto21PortalEffectComponent21CheckTypeAndMergeFromERKN6google8protobuf11MessageLiteE
0024a9c1 T _ZN5Caver5Proto21PortalEffectComponent21InitAsDefaultInstanceEv
0026c2dd T _ZN5Caver5Proto21PortalEffectComponent27MergePartialFromCodedStreamEPN6google8protobuf2io16CodedInputStreamE
0026c6db T _ZN5Caver5Proto21PortalEffectComponent4SwapEPS1_
0026c2a9 T _ZN5Caver5Proto21PortalEffectComponent5ClearEv
0026c6b5 T _ZN5Caver5Proto21PortalEffectComponent8CopyFromERKS1_
0026c0c1 T _ZN5Caver5Proto21PortalEffectComponent9MergeFromERKS1_
0026c081 T _ZN5Caver5Proto21PortalEffectComponentC1ERKS1_
0026c04d T _ZN5Caver5Proto21PortalEffectComponentC1Ev
0026c081 T _ZN5Caver5Proto21PortalEffectComponentC2ERKS1_
0026c04d T _ZN5Caver5Proto21PortalEffectComponentC2Ev
0026c255 T _ZN5Caver5Proto21PortalEffectComponentD0Ev
0026c1ed T _ZN5Caver5Proto21PortalEffectComponentD1Ev
0026c1ed T _ZN5Caver5Proto21PortalEffectComponentD2Ev
00250ec1 T _ZN5Caver5Proto22GroundPolygonComponent10SharedCtorEv
00251185 T _ZN5Caver5Proto22GroundPolygonComponent10SharedDtorEv
00249bf9 T _ZN5Caver5Proto22GroundPolygonComponent16default_instanceEv
002518ad T _ZN5Caver5Proto22GroundPolygonComponent21CheckTypeAndMergeFromERKN6google8protobuf11MessageLiteE
00249be5 T _ZN5Caver5Proto22GroundPolygonComponent21InitAsDefaultInstanceEv
00251285 T _ZN5Caver5Proto22GroundPolygonComponent27MergePartialFromCodedStreamEPN6google8protobuf2io16CodedInputStreamE
002518d7 T _ZN5Caver5Proto22GroundPolygonComponent4SwapEPS1_
00251225 T _ZN5Caver5Proto22GroundPolygonComponent5ClearEv
002518b1 T _ZN5Caver5Proto22GroundPolygonComponent8CopyFromERKS1_
00250f49 T _ZN5Caver5Proto22GroundPolygonComponent9MergeFromERKS1_
00250edd T _ZN5Caver5Proto22GroundPolygonComponentC1ERKS1_
00250e81 T _ZN5Caver5Proto22GroundPolygonComponentC1Ev
00250edd T _ZN5Caver5Proto22GroundPolygonComponentC2ERKS1_
00250e81 T _ZN5Caver5Proto22GroundPolygonComponentC2Ev
002511b5 T _ZN5Caver5Proto22GroundPolygonComponentD0Ev
00251139 T _ZN5Caver5Proto22GroundPolygonComponentD1Ev
00251139 T _ZN5Caver5Proto22GroundPolygonComponentD2Ev
0026ec65 T _ZN5Caver5Proto22MagicHookshotComponent10SharedCtorEv
0026ee11 T _ZN5Caver5Proto22MagicHookshotComponent10SharedDtorEv
0024ab9d T _ZN5Caver5Proto22MagicHookshotComponent16default_instanceEv
0026f299 T _ZN5Caver5Proto22MagicHookshotComponent21CheckTypeAndMergeFromERKN6google8protobuf11MessageLiteE
0024ab8d T _ZN5Caver5Proto22MagicHookshotComponent21InitAsDefaultInstanceEv
0026eea9 T _ZN5Caver5Proto22MagicHookshotComponent27MergePartialFromCodedStreamEPN6google8protobuf2io16CodedInputStreamE
0026f2c3 T _ZN5Caver5Proto22MagicHookshotComponent4SwapEPS1_
0026ee81 T _ZN5Caver5Proto22MagicHookshotComponent5ClearEv
0026f29d T _ZN5Caver5Proto22MagicHookshotComponent8CopyFromERKS1_
0026ecb5 T _ZN5Caver5Proto22MagicHookshotComponent9MergeFromERKS1_
0026ec75 T _ZN5Caver5Proto22MagicHookshotComponentC1ERKS1_
0026ec41 T _ZN5Caver5Proto22MagicHookshotComponentC1Ev
0026ec75 T _ZN5Caver5Proto22MagicHookshotComponentC2ERKS1_
0026ec41 T _ZN5Caver5Proto22MagicHookshotComponentC2Ev
0026ee2d T _ZN5Caver5Proto22MagicHookshotComponentD0Ev
0026edc5 T _ZN5Caver5Proto22MagicHookshotComponentD1Ev
0026edc5 T _ZN5Caver5Proto22MagicHookshotComponentD2Ev
0025bef9 T _ZN5Caver5Proto22MonsterEntityComponent10SharedCtorEv
0025c0ad T _ZN5Caver5Proto22MonsterEntityComponent10SharedDtorEv
0024a111 T _ZN5Caver5Proto22MonsterEntityComponent16default_instanceEv
0025c529 T _ZN5Caver5Proto22MonsterEntityComponent21CheckTypeAndMergeFromERKN6google8protobuf11MessageLiteE
0024a0fd T _ZN5Caver5Proto22MonsterEntityComponent21InitAsDefaultInstanceEv
0025c161 T _ZN5Caver5Proto22MonsterEntityComponent27MergePartialFromCodedStreamEPN6google8protobuf2io16CodedInputStreamE
0025c553 T _ZN5Caver5Proto22MonsterEntityComponent4SwapEPS1_
0025c12d T _ZN5Caver5Proto22MonsterEntityComponent5ClearEv
0025c52d T _ZN5Caver5Proto22MonsterEntityComponent8CopyFromERKS1_
0025bf45 T _ZN5Caver5Proto22MonsterEntityComponent9MergeFromERKS1_
0025bf09 T _ZN5Caver5Proto22MonsterEntityComponentC1ERKS1_
0025bedd T _ZN5Caver5Proto22MonsterEntityComponentC1Ev
0025bf09 T _ZN5Caver5Proto22MonsterEntityComponentC2ERKS1_
0025bedd T _ZN5Caver5Proto22MonsterEntityComponentC2Ev
0025c0dd T _ZN5Caver5Proto22MonsterEntityComponentD0Ev
0025c075 T _ZN5Caver5Proto22MonsterEntityComponentD1Ev
0025c075 T _ZN5Caver5Proto22MonsterEntityComponentD2Ev
00262bf9 T _ZN5Caver5Proto22ParticleFieldComponent10SharedCtorEv
00262cc1 T _ZN5Caver5Proto22ParticleFieldComponent10SharedDtorEv
0024a4a9 T _ZN5Caver5Proto22ParticleFieldComponent16default_instanceEv
00262d71 T _ZN5Caver5Proto22ParticleFieldComponent21CheckTypeAndMergeFromERKN6google8protobuf11MessageLiteE
0024a4a5 T _ZN5Caver5Proto22ParticleFieldComponent21InitAsDefaultInstanceEv
00262d23 T _ZN5Caver5Proto22ParticleFieldComponent27MergePartialFromCodedStreamEPN6google8protobuf2io16CodedInputStreamE
00262d9b T _ZN5Caver5Proto22ParticleFieldComponent4SwapEPS1_
00262d1d T _ZN5Caver5Proto22ParticleFieldComponent5ClearEv
00262d75 T _ZN5Caver5Proto22ParticleFieldComponent8CopyFromERKS1_
00262c39 T _ZN5Caver5Proto22ParticleFieldComponent9MergeFromERKS1_
00262c01 T _ZN5Caver5Proto22ParticleFieldComponentC1ERKS1_
00262be1 T _ZN5Caver5Proto22ParticleFieldComponentC1Ev
00262c01 T _ZN5Caver5Proto22ParticleFieldComponentC2ERKS1_
00262be1 T _ZN5Caver5Proto22ParticleFieldComponentC2Ev
00262cc5 T _ZN5Caver5Proto22ParticleFieldComponentD0Ev
00262cad T _ZN5Caver5Proto22ParticleFieldComponentD1Ev
00262cad T _ZN5Caver5Proto22ParticleFieldComponentD2Ev
0025c5fd T _ZN5Caver5Proto22PhysicsObjectComponent10SharedCtorEv
0025c809 T _ZN5Caver5Proto22PhysicsObjectComponent10SharedDtorEv
0024a14d T _ZN5Caver5Proto22PhysicsObjectComponent16default_instanceEv
0025cd15 T _ZN5Caver5Proto22PhysicsObjectComponent21CheckTypeAndMergeFromERKN6google8protobuf11MessageLiteE
0024a13d T _ZN5Caver5Proto22PhysicsObjectComponent21InitAsDefaultInstanceEv
0025c8bd T _ZN5Caver5Proto22PhysicsObjectComponent27MergePartialFromCodedStreamEPN6google8protobuf2io16CodedInputStreamE
0025cd3f T _ZN5Caver5Proto22PhysicsObjectComponent4SwapEPS1_
0025c885 T _ZN5Caver5Proto22PhysicsObjectComponent5ClearEv
0025cd19 T _ZN5Caver5Proto22PhysicsObjectComponent8CopyFromERKS1_
0025c66d T _ZN5Caver5Proto22PhysicsObjectComponent9MergeFromERKS1_
0025c61d T _ZN5Caver5Proto22PhysicsObjectComponentC1ERKS1_
0025c5cd T _ZN5Caver5Proto22PhysicsObjectComponentC1Ev
0025c61d T _ZN5Caver5Proto22PhysicsObjectComponentC2ERKS1_
0025c5cd T _ZN5Caver5Proto22PhysicsObjectComponentC2Ev
0025c825 T _ZN5Caver5Proto22PhysicsObjectComponentD0Ev
0025c7bd T _ZN5Caver5Proto22PhysicsObjectComponentD1Ev
0025c7bd T _ZN5Caver5Proto22PhysicsObjectComponentD2Ev
0023054d T _ZN5Caver5Proto22Texture_ConversionInfo10SharedCtorEv
00230671 T _ZN5Caver5Proto22Texture_ConversionInfo10SharedDtorEv
002306ad T _ZN5Caver5Proto22Texture_ConversionInfo16default_instanceEv
002309d9 T _ZN5Caver5Proto22Texture_ConversionInfo21CheckTypeAndMergeFromERKN6google8protobuf11MessageLiteE
0022d8e9 T _ZN5Caver5Proto22Texture_ConversionInfo21InitAsDefaultInstanceEv
00230719 T _ZN5Caver5Proto22Texture_ConversionInfo27MergePartialFromCodedStreamEPN6google8protobuf2io16CodedInputStreamE
00230a03 T _ZN5Caver5Proto22Texture_ConversionInfo4SwapEPS1_
00230705 T _ZN5Caver5Proto22Texture_ConversionInfo5ClearEv
002309dd T _ZN5Caver5Proto22Texture_ConversionInfo8CopyFromERKS1_
0023059d T _ZN5Caver5Proto22Texture_ConversionInfo9MergeFromERKS1_
0023055d T _ZN5Caver5Proto22Texture_ConversionInfoC1ERKS1_
00230529 T _ZN5Caver5Proto22Texture_ConversionInfoC1Ev
0023055d T _ZN5Caver5Proto22Texture_ConversionInfoC2ERKS1_
00230529 T _ZN5Caver5Proto22Texture_ConversionInfoC2Ev
00230675 T _ZN5Caver5Proto22Texture_ConversionInfoD0Ev
0023065d T _ZN5Caver5Proto22Texture_ConversionInfoD1Ev
0023065d T _ZN5Caver5Proto22Texture_ConversionInfoD2Ev
00250285 T _ZN5Caver5Proto23BlendAnimationComponent10SharedCtorEv
002503a9 T _ZN5Caver5Proto23BlendAnimationComponent10SharedDtorEv
00249b79 T _ZN5Caver5Proto23BlendAnimationComponent16default_instanceEv
0025067b T _ZN5Caver5Proto23BlendAnimationComponent21CheckTypeAndMergeFromERKN6google8protobuf11MessageLiteE
00249b75 T _ZN5Caver5Proto23BlendAnimationComponent21InitAsDefaultInstanceEv
00250425 T _ZN5Caver5Proto23BlendAnimationComponent27MergePartialFromCodedStreamEPN6google8protobuf2io16CodedInputStreamE
002506a5 T _ZN5Caver5Proto23BlendAnimationComponent4SwapEPS1_
00250411 T _ZN5Caver5Proto23BlendAnimationComponent5ClearEv
0025067f T _ZN5Caver5Proto23BlendAnimationComponent8CopyFromERKS1_
002502d5 T _ZN5Caver5Proto23BlendAnimationComponent9MergeFromERKS1_
00250295 T _ZN5Caver5Proto23BlendAnimationComponentC1ERKS1_
00250261 T _ZN5Caver5Proto23BlendAnimationComponentC1Ev
00250295 T _ZN5Caver5Proto23BlendAnimationComponentC2ERKS1_
00250261 T _ZN5Caver5Proto23BlendAnimationComponentC2Ev
002503ad T _ZN5Caver5Proto23BlendAnimationComponentD0Ev
00250395 T _ZN5Caver5Proto23BlendAnimationComponentD1Ev
00250395 T _ZN5Caver5Proto23BlendAnimationComponentD2Ev
0025a3d9 T _ZN5Caver5Proto23BushControllerComponent10SharedCtorEv
0025a4ed T _ZN5Caver5Proto23BushControllerComponent10SharedDtorEv
00249ff5 T _ZN5Caver5Proto23BushControllerComponent16default_instanceEv
0025a799 T _ZN5Caver5Proto23BushControllerComponent21CheckTypeAndMergeFromERKN6google8protobuf11MessageLiteE
00249ff1 T _ZN5Caver5Proto23BushControllerComponent21InitAsDefaultInstanceEv
0025a569 T _ZN5Caver5Proto23BushControllerComponent27MergePartialFromCodedStreamEPN6google8protobuf2io16CodedInputStreamE
0025a7c3 T _ZN5Caver5Proto23BushControllerComponent4SwapEPS1_
0025a555 T _ZN5Caver5Proto23BushControllerComponent5ClearEv
0025a79d T _ZN5Caver5Proto23BushControllerComponent8CopyFromERKS1_
0025a429 T _ZN5Caver5Proto23BushControllerComponent9MergeFromERKS1_
0025a3e9 T _ZN5Caver5Proto23BushControllerComponentC1ERKS1_
0025a3b5 T _ZN5Caver5Proto23BushControllerComponentC1Ev
0025a3e9 T _ZN5Caver5Proto23BushControllerComponentC2ERKS1_
0025a3b5 T _ZN5Caver5Proto23BushControllerComponentC2Ev
0025a4f1 T _ZN5Caver5Proto23BushControllerComponentD0Ev
0025a4d9 T _ZN5Caver5Proto23BushControllerComponentD1Ev
0025a4d9 T _ZN5Caver5Proto23BushControllerComponentD2Ev
00258ead T _ZN5Caver5Proto23CharControllerComponent10SharedCtorEv
0025916d T _ZN5Caver5Proto23CharControllerComponent10SharedDtorEv
00249f95 T _ZN5Caver5Proto23CharControllerComponent16default_instanceEv
00259e37 T _ZN5Caver5Proto23CharControllerComponent21CheckTypeAndMergeFromERKN6google8protobuf11MessageLiteE
00249f91 T _ZN5Caver5Proto23CharControllerComponent21InitAsDefaultInstanceEv
00259219 T _ZN5Caver5Proto23CharControllerComponent27MergePartialFromCodedStreamEPN6google8protobuf2io16CodedInputStreamE
00259e61 T _ZN5Caver5Proto23CharControllerComponent4SwapEPS1_
002591d5 T _ZN5Caver5Proto23CharControllerComponent5ClearEv
00259e3b T _ZN5Caver5Proto23CharControllerComponent8CopyFromERKS1_
00258f35 T _ZN5Caver5Proto23CharControllerComponent9MergeFromERKS1_
00258ec9 T _ZN5Caver5Proto23CharControllerComponentC1ERKS1_
00258e71 T _ZN5Caver5Proto23CharControllerComponentC1Ev
00258ec9 T _ZN5Caver5Proto23CharControllerComponentC2ERKS1_
00258e71 T _ZN5Caver5Proto23CharControllerComponentC2Ev
0025916f T _ZN5Caver5Proto23CharControllerComponentD0Ev
0025913d T _ZN5Caver5Proto23CharControllerComponentD1Ev
0025913d T _ZN5Caver5Proto23CharControllerComponentD2Ev
002546bd T _ZN5Caver5Proto23CollisionShapeComponent10SharedCtorEv
00254981 T _ZN5Caver5Proto23CollisionShapeComponent10SharedDtorEv
00249d75 T _ZN5Caver5Proto23CollisionShapeComponent16default_instanceEv
00255371 T _ZN5Caver5Proto23CollisionShapeComponent21CheckTypeAndMergeFromERKN6google8protobuf11MessageLiteE
00249d59 T _ZN5Caver5Proto23CollisionShapeComponent21InitAsDefaultInstanceEv
00254a81 T _ZN5Caver5Proto23CollisionShapeComponent27MergePartialFromCodedStreamEPN6google8protobuf2io16CodedInputStreamE
0025539b T _ZN5Caver5Proto23CollisionShapeComponent4SwapEPS1_
00254a21 T _ZN5Caver5Proto23CollisionShapeComponent5ClearEv
00255375 T _ZN5Caver5Proto23CollisionShapeComponent8CopyFromERKS1_
00254741 T _ZN5Caver5Proto23CollisionShapeComponent9MergeFromERKS1_
002546e5 T _ZN5Caver5Proto23CollisionShapeComponentC1ERKS1_
00254685 T _ZN5Caver5Proto23CollisionShapeComponentC1Ev
002546e5 T _ZN5Caver5Proto23CollisionShapeComponentC2ERKS1_
00254685 T _ZN5Caver5Proto23CollisionShapeComponentC2Ev
002549bd T _ZN5Caver5Proto23CollisionShapeComponentD0Ev
00254949 T _ZN5Caver5Proto23CollisionShapeComponentD1Ev
00254949 T _ZN5Caver5Proto23CollisionShapeComponentD2Ev
0026f971 T _ZN5Caver5Proto23DimensionSpellComponent10SharedCtorEv
0026fa39 T _ZN5Caver5Proto23DimensionSpellComponent10SharedDtorEv
0024ac39 T _ZN5Caver5Proto23DimensionSpellComponent16default_instanceEv
0026fae9 T _ZN5Caver5Proto23DimensionSpellComponent21CheckTypeAndMergeFromERKN6google8protobuf11MessageLiteE
0024ac35 T _ZN5Caver5Proto23DimensionSpellComponent21InitAsDefaultInstanceEv
0026fa9b T _ZN5Caver5Proto23DimensionSpellComponent27MergePartialFromCodedStreamEPN6google8protobuf2io16CodedInputStreamE
0026fb13 T _ZN5Caver5Proto23DimensionSpellComponent4SwapEPS1_
0026fa95 T _ZN5Caver5Proto23DimensionSpellComponent5ClearEv
0026faed T _ZN5Caver5Proto23DimensionSpellComponent8CopyFromERKS1_
0026f9b1 T _ZN5Caver5Proto23DimensionSpellComponent9MergeFromERKS1_
0026f979 T _ZN5Caver5Proto23DimensionSpellComponentC1ERKS1_
0026f959 T _ZN5Caver5Proto23DimensionSpellComponentC1Ev
0026f979 T _ZN5Caver5Proto23DimensionSpellComponentC2ERKS1_
0026f959 T _ZN5Caver5Proto23DimensionSpellComponentC2Ev
0026fa3d T _ZN5Caver5Proto23DimensionSpellComponentD0Ev
0026fa25 T _ZN5Caver5Proto23DimensionSpellComponentD1Ev
0026fa25 T _ZN5Caver5Proto23DimensionSpellComponentD2Ev
0025b305 T _ZN5Caver5Proto23DoorControllerComponent10SharedCtorEv
0025b441 T _ZN5Caver5Proto23DoorControllerComponent10SharedDtorEv
0024a095 T _ZN5Caver5Proto23DoorControllerComponent16default_instanceEv
0025b7f1 T _ZN5Caver5Proto23DoorControllerComponent21CheckTypeAndMergeFromERKN6google8protobuf11MessageLiteE
0024a091 T _ZN5Caver5Proto23DoorControllerComponent21InitAsDefaultInstanceEv
0025b4c5 T _ZN5Caver5Proto23DoorControllerComponent27MergePartialFromCodedStreamEPN6google8protobuf2io16CodedInputStreamE
0025b81b T _ZN5Caver5Proto23DoorControllerComponent4SwapEPS1_
0025b4a9 T _ZN5Caver5Proto23DoorControllerComponent5ClearEv
0025b7f5 T _ZN5Caver5Proto23DoorControllerComponent8CopyFromERKS1_
0025b359 T _ZN5Caver5Proto23DoorControllerComponent9MergeFromERKS1_
0025b319 T _ZN5Caver5Proto23DoorControllerComponentC1ERKS1_
0025b2e1 T _ZN5Caver5Proto23DoorControllerComponentC1Ev
0025b319 T _ZN5Caver5Proto23DoorControllerComponentC2ERKS1_
0025b2e1 T _ZN5Caver5Proto23DoorControllerComponentC2Ev
0025b445 T _ZN5Caver5Proto23DoorControllerComponentD0Ev
0025b42d T _ZN5Caver5Proto23DoorControllerComponentD1Ev
0025b42d T _ZN5Caver5Proto23DoorControllerComponentD2Ev
0023b5b5 T _ZN5Caver5Proto23GuideTarget_LevelObject10SharedCtorEv
0023b755 T _ZN5Caver5Proto23GuideTarget_LevelObject10SharedDtorEv
0023b7e9 T _ZN5Caver5Proto23GuideTarget_LevelObject16default_instanceEv
0023ba61 T _ZN5Caver5Proto23GuideTarget_LevelObject21CheckTypeAndMergeFromERKN6google8protobuf11MessageLiteE
002369c7 T _ZN5Caver5Proto23GuideTarget_LevelObject21InitAsDefaultInstanceEv
0023b8a9 T _ZN5Caver5Proto23GuideTarget_LevelObject27MergePartialFromCodedStreamEPN6google8protobuf2io16CodedInputStreamE
0023ba8b T _ZN5Caver5Proto23GuideTarget_LevelObject4SwapEPS1_
0023b851 T _ZN5Caver5Proto23GuideTarget_LevelObject5ClearEv
0023ba65 T _ZN5Caver5Proto23GuideTarget_LevelObject8CopyFromERKS1_
0023b625 T _ZN5Caver5Proto23GuideTarget_LevelObject9MergeFromERKS1_
0023b5d5 T _ZN5Caver5Proto23GuideTarget_LevelObjectC1ERKS1_
0023b579 T _ZN5Caver5Proto23GuideTarget_LevelObjectC1Ev
0023b5d5 T _ZN5Caver5Proto23GuideTarget_LevelObjectC2ERKS1_
0023b579 T _ZN5Caver5Proto23GuideTarget_LevelObjectC2Ev
0023b7c1 T _ZN5Caver5Proto23GuideTarget_LevelObjectD0Ev
0023b71d T _ZN5Caver5Proto23GuideTarget_LevelObjectD1Ev
0023b71d T _ZN5Caver5Proto23GuideTarget_LevelObjectD2Ev
0026ce4d T _ZN5Caver5Proto23MagicExplosionComponent10SharedCtorEv
0026cffd T _ZN5Caver5Proto23MagicExplosionComponent10SharedDtorEv
0024aa4d T _ZN5Caver5Proto23MagicExplosionComponent16default_instanceEv
0026d425 T _ZN5Caver5Proto23MagicExplosionComponent21CheckTypeAndMergeFromERKN6google8protobuf11MessageLiteE
0024aa3d T _ZN5Caver5Proto23MagicExplosionComponent21InitAsDefaultInstanceEv
0026d095 T _ZN5Caver5Proto23MagicExplosionComponent27MergePartialFromCodedStreamEPN6google8protobuf2io16CodedInputStreamE
0026d44f T _ZN5Caver5Proto23MagicExplosionComponent4SwapEPS1_
0026d06d T _ZN5Caver5Proto23MagicExplosionComponent5ClearEv
0026d429 T _ZN5Caver5Proto23MagicExplosionComponent8CopyFromERKS1_
0026ce9d T _ZN5Caver5Proto23MagicExplosionComponent9MergeFromERKS1_
0026ce5d T _ZN5Caver5Proto23MagicExplosionComponentC1ERKS1_
0026ce29 T _ZN5Caver5Proto23MagicExplosionComponentC1Ev
0026ce5d T _ZN5Caver5Proto23MagicExplosionComponentC2ERKS1_
0026ce29 T _ZN5Caver5Proto23MagicExplosionComponentC2Ev
0026d019 T _ZN5Caver5Proto23MagicExplosionComponentD0Ev
0026cfb1 T _ZN5Caver5Proto23MagicExplosionComponentD1Ev
0026cfb1 T _ZN5Caver5Proto23MagicExplosionComponentD2Ev
0026db3d T _ZN5Caver5Proto23MagicSpellCastComponent10SharedCtorEv
0026dc35 T _ZN5Caver5Proto23MagicSpellCastComponent10SharedDtorEv
0024aab9 T _ZN5Caver5Proto23MagicSpellCastComponent16default_instanceEv
0026de55 T _ZN5Caver5Proto23MagicSpellCastComponent21CheckTypeAndMergeFromERKN6google8protobuf11MessageLiteE
0024aab5 T _ZN5Caver5Proto23MagicSpellCastComponent21InitAsDefaultInstanceEv
0026dca5 T _ZN5Caver5Proto23MagicSpellCastComponent27MergePartialFromCodedStreamEPN6google8protobuf2io16CodedInputStreamE
0026de7f T _ZN5Caver5Proto23MagicSpellCastComponent4SwapEPS1_
0026dc95 T _ZN5Caver5Proto23MagicSpellCastComponent5ClearEv
0026de59 T _ZN5Caver5Proto23MagicSpellCastComponent8CopyFromERKS1_
0026db85 T _ZN5Caver5Proto23MagicSpellCastComponent9MergeFromERKS1_
0026db49 T _ZN5Caver5Proto23MagicSpellCastComponentC1ERKS1_
0026db21 T _ZN5Caver5Proto23MagicSpellCastComponentC1Ev
0026db49 T _ZN5Caver5Proto23MagicSpellCastComponentC2ERKS1_
0026db21 T _ZN5Caver5Proto23MagicSpellCastComponentC2Ev
0026dc39 T _ZN5Caver5Proto23MagicSpellCastComponentD0Ev
0026dc21 T _ZN5Caver5Proto23MagicSpellCastComponentD1Ev
0026dc21 T _ZN5Caver5Proto23MagicSpellCastComponentD2Ev
002623ad T _ZN5Caver5Proto23ParticleObjectComponent10SharedCtorEv
0026248d T _ZN5Caver5Proto23ParticleObjectComponent10SharedDtorEv
0024a43d T _ZN5Caver5Proto23ParticleObjectComponent16default_instanceEv
00262603 T _ZN5Caver5Proto23ParticleObjectComponent21CheckTypeAndMergeFromERKN6google8protobuf11MessageLiteE
0024a439 T _ZN5Caver5Proto23ParticleObjectComponent21InitAsDefaultInstanceEv
002624fd T _ZN5Caver5Proto23ParticleObjectComponent27MergePartialFromCodedStreamEPN6google8protobuf2io16CodedInputStreamE
0026262d T _ZN5Caver5Proto23ParticleObjectComponent4SwapEPS1_
002624ed T _ZN5Caver5Proto23ParticleObjectComponent5ClearEv
00262607 T _ZN5Caver5Proto23ParticleObjectComponent8CopyFromERKS1_
002623f1 T _ZN5Caver5Proto23ParticleObjectComponent9MergeFromERKS1_
002623b9 T _ZN5Caver5Proto23ParticleObjectComponentC1ERKS1_
00262395 T _ZN5Caver5Proto23ParticleObjectComponentC1Ev
002623b9 T _ZN5Caver5Proto23ParticleObjectComponentC2ERKS1_
00262395 T _ZN5Caver5Proto23ParticleObjectComponentC2Ev
00262491 T _ZN5Caver5Proto23ParticleObjectComponentD0Ev
00262479 T _ZN5Caver5Proto23ParticleObjectComponentD1Ev
00262479 T _ZN5Caver5Proto23ParticleObjectComponentD2Ev
00253251 T _ZN5Caver5Proto23TextureMappingComponent10SharedCtorEv
002533fd T _ZN5Caver5Proto23TextureMappingComponent10SharedDtorEv
00249ca5 T _ZN5Caver5Proto23TextureMappingComponent16default_instanceEv
002537a5 T _ZN5Caver5Proto23TextureMappingComponent21CheckTypeAndMergeFromERKN6google8protobuf11MessageLiteE
00249c95 T _ZN5Caver5Proto23TextureMappingComponent21InitAsDefaultInstanceEv
002534ed T _ZN5Caver5Proto23TextureMappingComponent27MergePartialFromCodedStreamEPN6google8protobuf2io16CodedInputStreamE
002537cf T _ZN5Caver5Proto23TextureMappingComponent4SwapEPS1_
002534a9 T _ZN5Caver5Proto23TextureMappingComponent5ClearEv
002537a9 T _ZN5Caver5Proto23TextureMappingComponent8CopyFromERKS1_
002532b1 T _ZN5Caver5Proto23TextureMappingComponent9MergeFromERKS1_
00253269 T _ZN5Caver5Proto23TextureMappingComponentC1ERKS1_
00253229 T _ZN5Caver5Proto23TextureMappingComponentC1Ev
00253269 T _ZN5Caver5Proto23TextureMappingComponentC2ERKS1_
00253229 T _ZN5Caver5Proto23TextureMappingComponentC2Ev
00253451 T _ZN5Caver5Proto23TextureMappingComponentD0Ev
002533c5 T _ZN5Caver5Proto23TextureMappingComponentD1Ev
002533c5 T _ZN5Caver5Proto23TextureMappingComponentD2Ev
0025ce01 T _ZN5Caver5Proto24BreakableObjectComponent10SharedCtorEv
0025cf99 T _ZN5Caver5Proto24BreakableObjectComponent10SharedDtorEv
0024a189 T _ZN5Caver5Proto24BreakableObjectComponent16default_instanceEv
0025d379 T _ZN5Caver5Proto24BreakableObjectComponent21CheckTypeAndMergeFromERKN6google8protobuf11MessageLiteE
0024a179 T _ZN5Caver5Proto24BreakableObjectComponent21InitAsDefaultInstanceEv
0025d02d T _ZN5Caver5Proto24BreakableObjectComponent27MergePartialFromCodedStreamEPN6google8protobuf2io16CodedInputStreamE
0025d3a3 T _ZN5Caver5Proto24BreakableObjectComponent4SwapEPS1_
0025d005 T _ZN5Caver5Proto24BreakableObjectComponent5ClearEv
0025d37d T _ZN5Caver5Proto24BreakableObjectComponent8CopyFromERKS1_
0025ce51 T _ZN5Caver5Proto24BreakableObjectComponent9MergeFromERKS1_
0025ce11 T _ZN5Caver5Proto24BreakableObjectComponentC1ERKS1_
0025cde1 T _ZN5Caver5Proto24BreakableObjectComponentC1Ev
0025ce11 T _ZN5Caver5Proto24BreakableObjectComponentC2ERKS1_
0025cde1 T _ZN5Caver5Proto24BreakableObjectComponentC2Ev
0025cfb5 T _ZN5Caver5Proto24BreakableObjectComponentD0Ev
0025cf4d T _ZN5Caver5Proto24BreakableObjectComponentD1Ev
0025cf4d T _ZN5Caver5Proto24BreakableObjectComponentD2Ev
00244641 T _ZN5Caver5Proto24CharacterState_ItemState10SharedCtorEv
002447a9 T _ZN5Caver5Proto24CharacterState_ItemState10SharedDtorEv
00244809 T _ZN5Caver5Proto24CharacterState_ItemState16default_instanceEv
00244a61 T _ZN5Caver5Proto24CharacterState_ItemState21CheckTypeAndMergeFromERKN6google8protobuf11MessageLiteE
0023ee3b T _ZN5Caver5Proto24CharacterState_ItemState21InitAsDefaultInstanceEv
002448a1 T _ZN5Caver5Proto24CharacterState_ItemState27MergePartialFromCodedStreamEPN6google8protobuf2io16CodedInputStreamE
00244a8b T _ZN5Caver5Proto24CharacterState_ItemState4SwapEPS1_
00244869 T _ZN5Caver5Proto24CharacterState_ItemState5ClearEv
00244a65 T _ZN5Caver5Proto24CharacterState_ItemState8CopyFromERKS1_
002446a1 T _ZN5Caver5Proto24CharacterState_ItemState9MergeFromERKS1_
00244659 T _ZN5Caver5Proto24CharacterState_ItemStateC1ERKS1_
00244619 T _ZN5Caver5Proto24CharacterState_ItemStateC1Ev
00244659 T _ZN5Caver5Proto24CharacterState_ItemStateC2ERKS1_
00244619 T _ZN5Caver5Proto24CharacterState_ItemStateC2Ev
002447e1 T _ZN5Caver5Proto24CharacterState_ItemStateD0Ev
00244771 T _ZN5Caver5Proto24CharacterState_ItemStateD1Ev
00244771 T _ZN5Caver5Proto24CharacterState_ItemStateD2Ev
002698fd T _ZN5Caver5Proto24CollectableItemComponent10SharedCtorEv
00269b2d T _ZN5Caver5Proto24CollectableItemComponent10SharedDtorEv
0024a8e5 T _ZN5Caver5Proto24CollectableItemComponent16default_instanceEv
0026a12d T _ZN5Caver5Proto24CollectableItemComponent21CheckTypeAndMergeFromERKN6google8protobuf11MessageLiteE
0024a8d5 T _ZN5Caver5Proto24CollectableItemComponent21InitAsDefaultInstanceEv
00269c81 T _ZN5Caver5Proto24CollectableItemComponent27MergePartialFromCodedStreamEPN6google8protobuf2io16CodedInputStreamE
0026a157 T _ZN5Caver5Proto24CollectableItemComponent4SwapEPS1_
00269c11 T _ZN5Caver5Proto24CollectableItemComponent5ClearEv
0026a131 T _ZN5Caver5Proto24CollectableItemComponent8CopyFromERKS1_
0026997d T _ZN5Caver5Proto24CollectableItemComponent9MergeFromERKS1_
00269925 T _ZN5Caver5Proto24CollectableItemComponentC1ERKS1_
002698bd T _ZN5Caver5Proto24CollectableItemComponentC1Ev
00269925 T _ZN5Caver5Proto24CollectableItemComponentC2ERKS1_
002698bd T _ZN5Caver5Proto24CollectableItemComponentC2Ev
00269ba5 T _ZN5Caver5Proto24CollectableItemComponentD0Ev
00269af5 T _ZN5Caver5Proto24CollectableItemComponentD1Ev
00269af5 T _ZN5Caver5Proto24CollectableItemComponentD2Ev
0026f769 T _ZN5Caver5Proto24DimensionObjectComponent10SharedCtorEv
0026f831 T _ZN5Caver5Proto24DimensionObjectComponent10SharedDtorEv
0024ac09 T _ZN5Caver5Proto24DimensionObjectComponent16default_instanceEv
0026f8e1 T _ZN5Caver5Proto24DimensionObjectComponent21CheckTypeAndMergeFromERKN6google8protobuf11MessageLiteE
0024ac05 T _ZN5Caver5Proto24DimensionObjectComponent21InitAsDefaultInstanceEv
0026f893 T _ZN5Caver5Proto24DimensionObjectComponent27MergePartialFromCodedStreamEPN6google8protobuf2io16CodedInputStreamE
0026f90b T _ZN5Caver5Proto24DimensionObjectComponent4SwapEPS1_
0026f88d T _ZN5Caver5Proto24DimensionObjectComponent5ClearEv
0026f8e5 T _ZN5Caver5Proto24DimensionObjectComponent8CopyFromERKS1_
0026f7a9 T _ZN5Caver5Proto24DimensionObjectComponent9MergeFromERKS1_
0026f771 T _ZN5Caver5Proto24DimensionObjectComponentC1ERKS1_
0026f751 T _ZN5Caver5Proto24DimensionObjectComponentC1Ev
0026f771 T _ZN5Caver5Proto24DimensionObjectComponentC2ERKS1_
0026f751 T _ZN5Caver5Proto24DimensionObjectComponentC2Ev
0026f835 T _ZN5Caver5Proto24DimensionObjectComponentD0Ev
0026f81d T _ZN5Caver5Proto24DimensionObjectComponentD1Ev
0026f81d T _ZN5Caver5Proto24DimensionObjectComponentD2Ev
0023b56d T _ZN5Caver5Proto24GuideTarget_Type_IsValidEi
002626b1 T _ZN5Caver5Proto24OrbitControllerComponent10SharedCtorEv
00262839 T _ZN5Caver5Proto24OrbitControllerComponent10SharedDtorEv
0024a479 T _ZN5Caver5Proto24OrbitControllerComponent16default_instanceEv
00262b45 T _ZN5Caver5Proto24OrbitControllerComponent21CheckTypeAndMergeFromERKN6google8protobuf11MessageLiteE
0024a469 T _ZN5Caver5Proto24OrbitControllerComponent21InitAsDefaultInstanceEv
002628d1 T _ZN5Caver5Proto24OrbitControllerComponent27MergePartialFromCodedStreamEPN6google8protobuf2io16CodedInputStreamE
00262b6f T _ZN5Caver5Proto24OrbitControllerComponent4SwapEPS1_
002628a9 T _ZN5Caver5Proto24OrbitControllerComponent5ClearEv
00262b49 T _ZN5Caver5Proto24OrbitControllerComponent8CopyFromERKS1_
00262701 T _ZN5Caver5Proto24OrbitControllerComponent9MergeFromERKS1_
002626c1 T _ZN5Caver5Proto24OrbitControllerComponentC1ERKS1_
0026268d T _ZN5Caver5Proto24OrbitControllerComponentC1Ev
002626c1 T _ZN5Caver5Proto24OrbitControllerComponentC2ERKS1_
0026268d T _ZN5Caver5Proto24OrbitControllerComponentC2Ev
00262855 T _ZN5Caver5Proto24OrbitControllerComponentD0Ev
002627ed T _ZN5Caver5Proto24OrbitControllerComponentD1Ev
002627ed T _ZN5Caver5Proto24OrbitControllerComponentD2Ev
0025fe81 T _ZN5Caver5Proto24ParticleEmitterComponent10SharedCtorEv
002601d5 T _ZN5Caver5Proto24ParticleEmitterComponent10SharedDtorEv
0024a351 T _ZN5Caver5Proto24ParticleEmitterComponent16default_instanceEv
00260b09 T _ZN5Caver5Proto24ParticleEmitterComponent21CheckTypeAndMergeFromERKN6google8protobuf11MessageLiteE
0024a33d T _ZN5Caver5Proto24ParticleEmitterComponent21InitAsDefaultInstanceEv
002602e1 T _ZN5Caver5Proto24ParticleEmitterComponent27MergePartialFromCodedStreamEPN6google8protobuf2io16CodedInputStreamE
00260b33 T _ZN5Caver5Proto24ParticleEmitterComponent4SwapEPS1_
0026027d T _ZN5Caver5Proto24ParticleEmitterComponent5ClearEv
00260b0d T _ZN5Caver5Proto24ParticleEmitterComponent8CopyFromERKS1_
0025ff15 T _ZN5Caver5Proto24ParticleEmitterComponent9MergeFromERKS1_
0025fe99 T _ZN5Caver5Proto24ParticleEmitterComponentC1ERKS1_
0025fe35 T _ZN5Caver5Proto24ParticleEmitterComponentC1Ev
0025fe99 T _ZN5Caver5Proto24ParticleEmitterComponentC2ERKS1_
0025fe35 T _ZN5Caver5Proto24ParticleEmitterComponentC2Ev
00260205 T _ZN5Caver5Proto24ParticleEmitterComponentD0Ev
00260165 T _ZN5Caver5Proto24ParticleEmitterComponentD1Ev
00260165 T _ZN5Caver5Proto24ParticleEmitterComponentD2Ev
0025df8d T _ZN5Caver5Proto24PhysicsPlatformComponent10SharedCtorEv
0025e0b1 T _ZN5Caver5Proto24PhysicsPlatformComponent10SharedDtorEv
0024a225 T _ZN5Caver5Proto24PhysicsPlatformComponent16default_instanceEv
0025e31f T _ZN5Caver5Proto24PhysicsPlatformComponent21CheckTypeAndMergeFromERKN6google8protobuf11MessageLiteE
0024a221 T _ZN5Caver5Proto24PhysicsPlatformComponent21InitAsDefaultInstanceEv
0025e12d T _ZN5Caver5Proto24PhysicsPlatformComponent27MergePartialFromCodedStreamEPN6google8protobuf2io16CodedInputStreamE
0025e349 T _ZN5Caver5Proto24PhysicsPlatformComponent4SwapEPS1_
0025e119 T _ZN5Caver5Proto24PhysicsPlatformComponent5ClearEv
0025e323 T _ZN5Caver5Proto24PhysicsPlatformComponent8CopyFromERKS1_
0025dfdd T _ZN5Caver5Proto24PhysicsPlatformComponent9MergeFromERKS1_
0025df9d T _ZN5Caver5Proto24PhysicsPlatformComponentC1ERKS1_
0025df69 T _ZN5Caver5Proto24PhysicsPlatformComponentC1Ev
0025df9d T _ZN5Caver5Proto24PhysicsPlatformComponentC2ERKS1_
0025df69 T _ZN5Caver5Proto24PhysicsPlatformComponentC2Ev
0025e0b5 T _ZN5Caver5Proto24PhysicsPlatformComponentD0Ev
0025e09d T _ZN5Caver5Proto24PhysicsPlatformComponentD1Ev
0025e09d T _ZN5Caver5Proto24PhysicsPlatformComponentD2Ev
0025ac3d T _ZN5Caver5Proto24PressureTriggerComponent10SharedCtorEv
0025adf1 T _ZN5Caver5Proto24PressureTriggerComponent10SharedDtorEv
0024a065 T _ZN5Caver5Proto24PressureTriggerComponent16default_instanceEv
0025b23d T _ZN5Caver5Proto24PressureTriggerComponent21CheckTypeAndMergeFromERKN6google8protobuf11MessageLiteE
0024a051 T _ZN5Caver5Proto24PressureTriggerComponent21InitAsDefaultInstanceEv
0025aea5 T _ZN5Caver5Proto24PressureTriggerComponent27MergePartialFromCodedStreamEPN6google8protobuf2io16CodedInputStreamE
0025b267 T _ZN5Caver5Proto24PressureTriggerComponent4SwapEPS1_
0025ae71 T _ZN5Caver5Proto24PressureTriggerComponent5ClearEv
0025b241 T _ZN5Caver5Proto24PressureTriggerComponent8CopyFromERKS1_
0025ac8d T _ZN5Caver5Proto24PressureTriggerComponent9MergeFromERKS1_
0025ac4d T _ZN5Caver5Proto24PressureTriggerComponentC1ERKS1_
0025ac1d T _ZN5Caver5Proto24PressureTriggerComponentC1Ev
0025ac4d T _ZN5Caver5Proto24PressureTriggerComponentC2ERKS1_
0025ac1d T _ZN5Caver5Proto24PressureTriggerComponentC2Ev
0025ae21 T _ZN5Caver5Proto24PressureTriggerComponentD0Ev
0025adb9 T _ZN5Caver5Proto24PressureTriggerComponentD1Ev
0025adb9 T _ZN5Caver5Proto24PressureTriggerComponentD2Ev
00266aad T _ZN5Caver5Proto24SwingableWeaponComponent10SharedCtorEv
00266cf5 T _ZN5Caver5Proto24SwingableWeaponComponent10SharedDtorEv
0024a761 T _ZN5Caver5Proto24SwingableWeaponComponent16default_instanceEv
002675c9 T _ZN5Caver5Proto24SwingableWeaponComponent21CheckTypeAndMergeFromERKN6google8protobuf11MessageLiteE
0024a751 T _ZN5Caver5Proto24SwingableWeaponComponent21InitAsDefaultInstanceEv
00266da9 T _ZN5Caver5Proto24SwingableWeaponComponent27MergePartialFromCodedStreamEPN6google8protobuf2io16CodedInputStreamE
002675f3 T _ZN5Caver5Proto24SwingableWeaponComponent4SwapEPS1_
00266d65 T _ZN5Caver5Proto24SwingableWeaponComponent5ClearEv
002675cd T _ZN5Caver5Proto24SwingableWeaponComponent8CopyFromERKS1_
00266afd T _ZN5Caver5Proto24SwingableWeaponComponent9MergeFromERKS1_
00266abd T _ZN5Caver5Proto24SwingableWeaponComponentC1ERKS1_
00266a89 T _ZN5Caver5Proto24SwingableWeaponComponentC1Ev
00266abd T _ZN5Caver5Proto24SwingableWeaponComponentC2ERKS1_
00266a89 T _ZN5Caver5Proto24SwingableWeaponComponentC2Ev
00266d11 T _ZN5Caver5Proto24SwingableWeaponComponentD0Ev
00266ca9 T _ZN5Caver5Proto24SwingableWeaponComponentD1Ev
00266ca9 T _ZN5Caver5Proto24SwingableWeaponComponentD2Ev
0025d451 T _ZN5Caver5Proto25EntityControllerComponent10SharedCtorEv
0025d5cd T _ZN5Caver5Proto25EntityControllerComponent10SharedDtorEv
0024a1b9 T _ZN5Caver5Proto25EntityControllerComponent16default_instanceEv
0025da99 T _ZN5Caver5Proto25EntityControllerComponent21CheckTypeAndMergeFromERKN6google8protobuf11MessageLiteE
0024a1b5 T _ZN5Caver5Proto25EntityControllerComponent21InitAsDefaultInstanceEv
0025d659 T _ZN5Caver5Proto25EntityControllerComponent27MergePartialFromCodedStreamEPN6google8protobuf2io16CodedInputStreamE
0025dac3 T _ZN5Caver5Proto25EntityControllerComponent4SwapEPS1_
0025d639 T _ZN5Caver5Proto25EntityControllerComponent5ClearEv
0025da9d T _ZN5Caver5Proto25EntityControllerComponent8CopyFromERKS1_
0025d4ad T _ZN5Caver5Proto25EntityControllerComponent9MergeFromERKS1_
0025d469 T _ZN5Caver5Proto25EntityControllerComponentC1ERKS1_
0025d429 T _ZN5Caver5Proto25EntityControllerComponentC1Ev
0025d469 T _ZN5Caver5Proto25EntityControllerComponentC2ERKS1_
0025d429 T _ZN5Caver5Proto25EntityControllerComponentC2Ev
0025d5d1 T _ZN5Caver5Proto25EntityControllerComponentD0Ev
0025d5b9 T _ZN5Caver5Proto25EntityControllerComponentD1Ev
0025d5b9 T _ZN5Caver5Proto25EntityControllerComponentD2Ev
0024ad65 T _ZN5Caver5Proto25SpecialDamageType_IsValidEi
0024fc39 T _ZN5Caver5Proto26KeyframeAnimationComponent10SharedCtorEv
0024fdd9 T _ZN5Caver5Proto26KeyframeAnimationComponent10SharedDtorEv
00249b49 T _ZN5Caver5Proto26KeyframeAnimationComponent16default_instanceEv
002501b7 T _ZN5Caver5Proto26KeyframeAnimationComponent21CheckTypeAndMergeFromERKN6google8protobuf11MessageLiteE
00249b45 T _ZN5Caver5Proto26KeyframeAnimationComponent21InitAsDefaultInstanceEv
0024fea9 T _ZN5Caver5Proto26KeyframeAnimationComponent27MergePartialFromCodedStreamEPN6google8protobuf2io16CodedInputStreamE
002501e1 T _ZN5Caver5Proto26KeyframeAnimationComponent4SwapEPS1_
0024fe6d T _ZN5Caver5Proto26KeyframeAnimationComponent5ClearEv
002501bb T _ZN5Caver5Proto26KeyframeAnimationComponent8CopyFromERKS1_
0024fc9d T _ZN5Caver5Proto26KeyframeAnimationComponent9MergeFromERKS1_
0024fc55 T _ZN5Caver5Proto26KeyframeAnimationComponentC1ERKS1_
0024fc11 T _ZN5Caver5Proto26KeyframeAnimationComponentC1Ev
0024fc55 T _ZN5Caver5Proto26KeyframeAnimationComponentC2ERKS1_
0024fc11 T _ZN5Caver5Proto26KeyframeAnimationComponentC2Ev
0024fe11 T _ZN5Caver5Proto26KeyframeAnimationComponentD0Ev
0024fda1 T _ZN5Caver5Proto26KeyframeAnimationComponentD1Ev
0024fda1 T _ZN5Caver5Proto26KeyframeAnimationComponentD2Ev
0026fb61 T _ZN5Caver5Proto26MeshData_ValueType_IsValidEi
00262e0d T _ZN5Caver5Proto26MonsterControllerComponent10SharedCtorEv
00262f31 T _ZN5Caver5Proto26MonsterControllerComponent10SharedDtorEv
0024a4d9 T _ZN5Caver5Proto26MonsterControllerComponent16default_instanceEv
00263235 T _ZN5Caver5Proto26MonsterControllerComponent21CheckTypeAndMergeFromERKN6google8protobuf11MessageLiteE
0024a4d5 T _ZN5Caver5Proto26MonsterControllerComponent21InitAsDefaultInstanceEv
00262fad T _ZN5Caver5Proto26MonsterControllerComponent27MergePartialFromCodedStreamEPN6google8protobuf2io16CodedInputStreamE
0026325f T _ZN5Caver5Proto26MonsterControllerComponent4SwapEPS1_
00262f99 T _ZN5Caver5Proto26MonsterControllerComponent5ClearEv
00263239 T _ZN5Caver5Proto26MonsterControllerComponent8CopyFromERKS1_
00262e5d T _ZN5Caver5Proto26MonsterControllerComponent9MergeFromERKS1_
00262e1d T _ZN5Caver5Proto26MonsterControllerComponentC1ERKS1_
00262de9 T _ZN5Caver5Proto26MonsterControllerComponentC1Ev
00262e1d T _ZN5Caver5Proto26MonsterControllerComponentC2ERKS1_
00262de9 T _ZN5Caver5Proto26MonsterControllerComponentC2Ev
00262f35 T _ZN5Caver5Proto26MonsterControllerComponentD0Ev
00262f1d T _ZN5Caver5Proto26MonsterControllerComponentD1Ev
00262f1d T _ZN5Caver5Proto26MonsterControllerComponentD2Ev
0025882d T _ZN5Caver5Proto27CharAnimControllerComponent10SharedCtorEv
00258979 T _ZN5Caver5Proto27CharAnimControllerComponent10SharedDtorEv
00249f65 T _ZN5Caver5Proto27CharAnimControllerComponent16default_instanceEv
00258dbf T _ZN5Caver5Proto27CharAnimControllerComponent21CheckTypeAndMergeFromERKN6google8protobuf11MessageLiteE
00249f61 T _ZN5Caver5Proto27CharAnimControllerComponent21InitAsDefaultInstanceEv
002589fd T _ZN5Caver5Proto27CharAnimControllerComponent27MergePartialFromCodedStreamEPN6google8protobuf2io16CodedInputStreamE
00258de9 T _ZN5Caver5Proto27CharAnimControllerComponent4SwapEPS1_
002589e1 T _ZN5Caver5Proto27CharAnimControllerComponent5ClearEv
00258dc3 T _ZN5Caver5Proto27CharAnimControllerComponent8CopyFromERKS1_
0025887d T _ZN5Caver5Proto27CharAnimControllerComponent9MergeFromERKS1_
0025883d T _ZN5Caver5Proto27CharAnimControllerComponentC1ERKS1_
00258809 T _ZN5Caver5Proto27CharAnimControllerComponentC1Ev
0025883d T _ZN5Caver5Proto27CharAnimControllerComponentC2ERKS1_
00258809 T _ZN5Caver5Proto27CharAnimControllerComponentC2Ev
0025897d T _ZN5Caver5Proto27CharAnimControllerComponentD0Ev
00258965 T _ZN5Caver5Proto27CharAnimControllerComponentD1Ev
00258965 T _ZN5Caver5Proto27CharAnimControllerComponentD2Ev
0025a85d T _ZN5Caver5Proto27ElevatorControllerComponent10SharedCtorEv
0025a959 T _ZN5Caver5Proto27ElevatorControllerComponent10SharedDtorEv
0024a025 T _ZN5Caver5Proto27ElevatorControllerComponent16default_instanceEv
0025ab89 T _ZN5Caver5Proto27ElevatorControllerComponent21CheckTypeAndMergeFromERKN6google8protobuf11MessageLiteE
0024a021 T _ZN5Caver5Proto27ElevatorControllerComponent21InitAsDefaultInstanceEv
0025a9d1 T _ZN5Caver5Proto27ElevatorControllerComponent27MergePartialFromCodedStreamEPN6google8protobuf2io16CodedInputStreamE
0025abb3 T _ZN5Caver5Proto27ElevatorControllerComponent4SwapEPS1_
0025a9bd T _ZN5Caver5Proto27ElevatorControllerComponent5ClearEv
0025ab8d T _ZN5Caver5Proto27ElevatorControllerComponent8CopyFromERKS1_
0025a8a9 T _ZN5Caver5Proto27ElevatorControllerComponent9MergeFromERKS1_
0025a86d T _ZN5Caver5Proto27ElevatorControllerComponentC1ERKS1_
0025a841 T _ZN5Caver5Proto27ElevatorControllerComponentC1Ev
0025a86d T _ZN5Caver5Proto27ElevatorControllerComponentC2ERKS1_
0025a841 T _ZN5Caver5Proto27ElevatorControllerComponentC2Ev
0025a95d T _ZN5Caver5Proto27ElevatorControllerComponentD0Ev
0025a945 T _ZN5Caver5Proto27ElevatorControllerComponentD1Ev
0025a945 T _ZN5Caver5Proto27ElevatorControllerComponentD2Ev
002570f5 T _ZN5Caver5Proto27LightComponent_Type_IsValidEi
002583c5 T _ZN5Caver5Proto28AnimationControllerComponent10SharedCtorEv
002584d5 T _ZN5Caver5Proto28AnimationControllerComponent10SharedDtorEv
00249f35 T _ZN5Caver5Proto28AnimationControllerComponent16default_instanceEv
0025876d T _ZN5Caver5Proto28AnimationControllerComponent21CheckTypeAndMergeFromERKN6google8protobuf11MessageLiteE
00249f31 T _ZN5Caver5Proto28AnimationControllerComponent21InitAsDefaultInstanceEv
0025854d T _ZN5Caver5Proto28AnimationControllerComponent27MergePartialFromCodedStreamEPN6google8protobuf2io16CodedInputStreamE
00258797 T _ZN5Caver5Proto28AnimationControllerComponent4SwapEPS1_
00258539 T _ZN5Caver5Proto28AnimationControllerComponent5ClearEv
00258771 T _ZN5Caver5Proto28AnimationControllerComponent8CopyFromERKS1_
00258411 T _ZN5Caver5Proto28AnimationControllerComponent9MergeFromERKS1_
002583d5 T _ZN5Caver5Proto28AnimationControllerComponentC1ERKS1_
002583a9 T _ZN5Caver5Proto28AnimationControllerComponentC1Ev
002583d5 T _ZN5Caver5Proto28AnimationControllerComponentC2ERKS1_
002583a9 T _ZN5Caver5Proto28AnimationControllerComponentC2Ev
002584d9 T _ZN5Caver5Proto28AnimationControllerComponentD0Ev
002584c1 T _ZN5Caver5Proto28AnimationControllerComponentD1Ev
002584c1 T _ZN5Caver5Proto28AnimationControllerComponentD2Ev
00252999 T _ZN5Caver5Proto28GroundMeshGeneratorComponent10SharedCtorEv
00252b45 T _ZN5Caver5Proto28GroundMeshGeneratorComponent10SharedDtorEv
00249c69 T _ZN5Caver5Proto28GroundMeshGeneratorComponent16default_instanceEv
0025314d T _ZN5Caver5Proto28GroundMeshGeneratorComponent21CheckTypeAndMergeFromERKN6google8protobuf11MessageLiteE
00249c65 T _ZN5Caver5Proto28GroundMeshGeneratorComponent21InitAsDefaultInstanceEv
00252bd9 T _ZN5Caver5Proto28GroundMeshGeneratorComponent27MergePartialFromCodedStreamEPN6google8protobuf2io16CodedInputStreamE
00253177 T _ZN5Caver5Proto28GroundMeshGeneratorComponent4SwapEPS1_
00252bad T _ZN5Caver5Proto28GroundMeshGeneratorComponent5ClearEv
00253151 T _ZN5Caver5Proto28GroundMeshGeneratorComponent8CopyFromERKS1_
002529e9 T _ZN5Caver5Proto28GroundMeshGeneratorComponent9MergeFromERKS1_
002529a9 T _ZN5Caver5Proto28GroundMeshGeneratorComponentC1ERKS1_
00252975 T _ZN5Caver5Proto28GroundMeshGeneratorComponentC1Ev
002529a9 T _ZN5Caver5Proto28GroundMeshGeneratorComponentC2ERKS1_
00252975 T _ZN5Caver5Proto28GroundMeshGeneratorComponentC2Ev
00252b49 T _ZN5Caver5Proto28GroundMeshGeneratorComponentD0Ev
00252b31 T _ZN5Caver5Proto28GroundMeshGeneratorComponentD1Ev
00252b31 T _ZN5Caver5Proto28GroundMeshGeneratorComponentD2Ev
00255ca5 T _ZN5Caver5Proto28HealthComponent_Type_IsValidEi
0025f311 T _ZN5Caver5Proto28ParticleEmitter_Type_IsValidEi
00265c31 T _ZN5Caver5Proto29BatMonsterControllerComponent10SharedCtorEv
00265d29 T _ZN5Caver5Proto29BatMonsterControllerComponent10SharedDtorEv
0024a695 T _ZN5Caver5Proto29BatMonsterControllerComponent16default_instanceEv
00265f49 T _ZN5Caver5Proto29BatMonsterControllerComponent21CheckTypeAndMergeFromERKN6google8protobuf11MessageLiteE
0024a691 T _ZN5Caver5Proto29BatMonsterControllerComponent21InitAsDefaultInstanceEv
00265d99 T _ZN5Caver5Proto29BatMonsterControllerComponent27MergePartialFromCodedStreamEPN6google8protobuf2io16CodedInputStreamE
00265f73 T _ZN5Caver5Proto29BatMonsterControllerComponent4SwapEPS1_
00265d89 T _ZN5Caver5Proto29BatMonsterControllerComponent5ClearEv
00265f4d T _ZN5Caver5Proto29BatMonsterControllerComponent8CopyFromERKS1_
00265c79 T _ZN5Caver5Proto29BatMonsterControllerComponent9MergeFromERKS1_
00265c3d T _ZN5Caver5Proto29BatMonsterControllerComponentC1ERKS1_
00265c15 T _ZN5Caver5Proto29BatMonsterControllerComponentC1Ev
00265c3d T _ZN5Caver5Proto29BatMonsterControllerComponentC2ERKS1_
00265c15 T _ZN5Caver5Proto29BatMonsterControllerComponentC2Ev
00265d2d T _ZN5Caver5Proto29BatMonsterControllerComponentD0Ev
00265d15 T _ZN5Caver5Proto29BatMonsterControllerComponentD1Ev
00265d15 T _ZN5Caver5Proto29BatMonsterControllerComponentD2Ev
00256749 T _ZN5Caver5Proto29ObjectLinkControllerComponent10SharedCtorEv
002569c1 T _ZN5Caver5Proto29ObjectLinkControllerComponent10SharedDtorEv
00249e59 T _ZN5Caver5Proto29ObjectLinkControllerComponent16default_instanceEv
00257049 T _ZN5Caver5Proto29ObjectLinkControllerComponent21CheckTypeAndMergeFromERKN6google8protobuf11MessageLiteE
00249e3d T _ZN5Caver5Proto29ObjectLinkControllerComponent21InitAsDefaultInstanceEv
00256b31 T _ZN5Caver5Proto29ObjectLinkControllerComponent27MergePartialFromCodedStreamEPN6google8protobuf2io16CodedInputStreamE
00257073 T _ZN5Caver5Proto29ObjectLinkControllerComponent4SwapEPS1_
00256ab1 T _ZN5Caver5Proto29ObjectLinkControllerComponent5ClearEv
0025704d T _ZN5Caver5Proto29ObjectLinkControllerComponent8CopyFromERKS1_
002567c5 T _ZN5Caver5Proto29ObjectLinkControllerComponent9MergeFromERKS1_
00256771 T _ZN5Caver5Proto29ObjectLinkControllerComponentC1ERKS1_
00256709 T _ZN5Caver5Proto29ObjectLinkControllerComponentC1Ev
00256771 T _ZN5Caver5Proto29ObjectLinkControllerComponentC2ERKS1_
00256709 T _ZN5Caver5Proto29ObjectLinkControllerComponentC2Ev
00256a4d T _ZN5Caver5Proto29ObjectLinkControllerComponentD0Ev
00256989 T _ZN5Caver5Proto29ObjectLinkControllerComponentD1Ev
00256989 T _ZN5Caver5Proto29ObjectLinkControllerComponentD2Ev
0026e4b5 T _ZN5Caver5Proto29ProjectileControllerComponent10SharedCtorEv
0026e5a9 T _ZN5Caver5Proto29ProjectileControllerComponent10SharedDtorEv
0024ab25 T _ZN5Caver5Proto29ProjectileControllerComponent16default_instanceEv
0026e7a1 T _ZN5Caver5Proto29ProjectileControllerComponent21CheckTypeAndMergeFromERKN6google8protobuf11MessageLiteE
0024ab21 T _ZN5Caver5Proto29ProjectileControllerComponent21InitAsDefaultInstanceEv
0026e619 T _ZN5Caver5Proto29ProjectileControllerComponent27MergePartialFromCodedStreamEPN6google8protobuf2io16CodedInputStreamE
0026e7cb T _ZN5Caver5Proto29ProjectileControllerComponent4SwapEPS1_
0026e609 T _ZN5Caver5Proto29ProjectileControllerComponent5ClearEv
0026e7a5 T _ZN5Caver5Proto29ProjectileControllerComponent8CopyFromERKS1_
0026e4f9 T _ZN5Caver5Proto29ProjectileControllerComponent9MergeFromERKS1_
0026e4c1 T _ZN5Caver5Proto29ProjectileControllerComponentC1ERKS1_
0026e49d T _ZN5Caver5Proto29ProjectileControllerComponentC1Ev
0026e4c1 T _ZN5Caver5Proto29ProjectileControllerComponentC2ERKS1_
0026e49d T _ZN5Caver5Proto29ProjectileControllerComponentC2Ev
0026e5ad T _ZN5Caver5Proto29ProjectileControllerComponentD0Ev
0026e595 T _ZN5Caver5Proto29ProjectileControllerComponentD1Ev
0026e595 T _ZN5Caver5Proto29ProjectileControllerComponentD2Ev
002465c5 T _ZN5Caver5Proto30protobuf_AddDesc_Scene_2eprotoEv
0026a6e5 T _ZN5Caver5Proto31ItemDropComponent_ItemDropEntry10SharedCtorEv
0026a8c9 T _ZN5Caver5Proto31ItemDropComponent_ItemDropEntry10SharedDtorEv
0026a95d T _ZN5Caver5Proto31ItemDropComponent_ItemDropEntry16default_instanceEv
0026ad6b T _ZN5Caver5Proto31ItemDropComponent_ItemDropEntry21CheckTypeAndMergeFromERKN6google8protobuf11MessageLiteE
0024a97d T _ZN5Caver5Proto31ItemDropComponent_ItemDropEntry21InitAsDefaultInstanceEv
0026aa25 T _ZN5Caver5Proto31ItemDropComponent_ItemDropEntry27MergePartialFromCodedStreamEPN6google8protobuf2io16CodedInputStreamE
0026ad95 T _ZN5Caver5Proto31ItemDropComponent_ItemDropEntry4SwapEPS1_
0026a9c5 T _ZN5Caver5Proto31ItemDropComponent_ItemDropEntry5ClearEv
0026ad6f T _ZN5Caver5Proto31ItemDropComponent_ItemDropEntry8CopyFromERKS1_
0026a761 T _ZN5Caver5Proto31ItemDropComponent_ItemDropEntry9MergeFromERKS1_
0026a70d T _ZN5Caver5Proto31ItemDropComponent_ItemDropEntryC1ERKS1_
0026a6a5 T _ZN5Caver5Proto31ItemDropComponent_ItemDropEntryC1Ev
0026a70d T _ZN5Caver5Proto31ItemDropComponent_ItemDropEntryC2ERKS1_
0026a6a5 T _ZN5Caver5Proto31ItemDropComponent_ItemDropEntryC2Ev
0026a935 T _ZN5Caver5Proto31ItemDropComponent_ItemDropEntryD0Ev
0026a891 T _ZN5Caver5Proto31ItemDropComponent_ItemDropEntryD1Ev
0026a891 T _ZN5Caver5Proto31ItemDropComponent_ItemDropEntryD2Ev
002664b1 T _ZN5Caver5Proto31MonsterDeathControllerComponent10SharedCtorEv
00266591 T _ZN5Caver5Proto31MonsterDeathControllerComponent10SharedDtorEv
0024a6f5 T _ZN5Caver5Proto31MonsterDeathControllerComponent16default_instanceEv
00266707 T _ZN5Caver5Proto31MonsterDeathControllerComponent21CheckTypeAndMergeFromERKN6google8protobuf11MessageLiteE
0024a6f1 T _ZN5Caver5Proto31MonsterDeathControllerComponent21InitAsDefaultInstanceEv
00266601 T _ZN5Caver5Proto31MonsterDeathControllerComponent27MergePartialFromCodedStreamEPN6google8protobuf2io16CodedInputStreamE
00266731 T _ZN5Caver5Proto31MonsterDeathControllerComponent4SwapEPS1_
002665f1 T _ZN5Caver5Proto31MonsterDeathControllerComponent5ClearEv
0026670b T _ZN5Caver5Proto31MonsterDeathControllerComponent8CopyFromERKS1_
002664f5 T _ZN5Caver5Proto31MonsterDeathControllerComponent9MergeFromERKS1_
002664bd T _ZN5Caver5Proto31MonsterDeathControllerComponentC1ERKS1_
00266499 T _ZN5Caver5Proto31MonsterDeathControllerComponentC1Ev
002664bd T _ZN5Caver5Proto31MonsterDeathControllerComponentC2ERKS1_
00266499 T _ZN5Caver5Proto31MonsterDeathControllerComponentC2Ev
00266595 T _ZN5Caver5Proto31MonsterDeathControllerComponentD0Ev
0026657d T _ZN5Caver5Proto31MonsterDeathControllerComponentD1Ev
0026657d T _ZN5Caver5Proto31MonsterDeathControllerComponentD2Ev
0022d26d T _ZN5Caver5Proto31protobuf_AddDesc_Common_2eprotoEv
002369eb T _ZN5Caver5Proto32MapNode_Portal_Direction_IsValidEi
0025b89d T _ZN5Caver5Proto32ProgramComponent_Trigger_IsValidEi
00264fbd T _ZN5Caver5Proto32SkellyMonsterControllerComponent10SharedCtorEv
002650b5 T _ZN5Caver5Proto32SkellyMonsterControllerComponent10SharedDtorEv
0024a605 T _ZN5Caver5Proto32SkellyMonsterControllerComponent16default_instanceEv
002652d5 T _ZN5Caver5Proto32SkellyMonsterControllerComponent21CheckTypeAndMergeFromERKN6google8protobuf11MessageLiteE
0024a601 T _ZN5Caver5Proto32SkellyMonsterControllerComponent21InitAsDefaultInstanceEv
00265125 T _ZN5Caver5Proto32SkellyMonsterControllerComponent27MergePartialFromCodedStreamEPN6google8protobuf2io16CodedInputStreamE
002652ff T _ZN5Caver5Proto32SkellyMonsterControllerComponent4SwapEPS1_
00265115 T _ZN5Caver5Proto32SkellyMonsterControllerComponent5ClearEv
002652d9 T _ZN5Caver5Proto32SkellyMonsterControllerComponent8CopyFromERKS1_
00265005 T _ZN5Caver5Proto32SkellyMonsterControllerComponent9MergeFromERKS1_
00264fc9 T _ZN5Caver5Proto32SkellyMonsterControllerComponentC1ERKS1_
00264fa1 T _ZN5Caver5Proto32SkellyMonsterControllerComponentC1Ev
00264fc9 T _ZN5Caver5Proto32SkellyMonsterControllerComponentC2ERKS1_
00264fa1 T _ZN5Caver5Proto32SkellyMonsterControllerComponentC2Ev
002650b9 T _ZN5Caver5Proto32SkellyMonsterControllerComponentD0Ev
002650a1 T _ZN5Caver5Proto32SkellyMonsterControllerComponentD1Ev
002650a1 T _ZN5Caver5Proto32SkellyMonsterControllerComponentD2Ev
00265391 T _ZN5Caver5Proto32StaticMonsterControllerComponent10SharedCtorEv
002654dd T _ZN5Caver5Proto32StaticMonsterControllerComponent10SharedDtorEv
0024a635 T _ZN5Caver5Proto32StaticMonsterControllerComponent16default_instanceEv
002657b1 T _ZN5Caver5Proto32StaticMonsterControllerComponent21CheckTypeAndMergeFromERKN6google8protobuf11MessageLiteE
0024a631 T _ZN5Caver5Proto32StaticMonsterControllerComponent21InitAsDefaultInstanceEv
00265549 T _ZN5Caver5Proto32StaticMonsterControllerComponent27MergePartialFromCodedStreamEPN6google8protobuf2io16CodedInputStreamE
002657db T _ZN5Caver5Proto32StaticMonsterControllerComponent4SwapEPS1_
00265535 T _ZN5Caver5Proto32StaticMonsterControllerComponent5ClearEv
002657b5 T _ZN5Caver5Proto32StaticMonsterControllerComponent8CopyFromERKS1_
002653f9 T _ZN5Caver5Proto32StaticMonsterControllerComponent9MergeFromERKS1_
0026539d T _ZN5Caver5Proto32StaticMonsterControllerComponentC1ERKS1_
00265369 T _ZN5Caver5Proto32StaticMonsterControllerComponentC1Ev
0026539d T _ZN5Caver5Proto32StaticMonsterControllerComponentC2ERKS1_
00265369 T _ZN5Caver5Proto32StaticMonsterControllerComponentC2Ev
002654df T _ZN5Caver5Proto32StaticMonsterControllerComponentD0Ev
002654ad T _ZN5Caver5Proto32StaticMonsterControllerComponentD1Ev
002654ad T _ZN5Caver5Proto32StaticMonsterControllerComponentD2Ev
002667a9 T _ZN5Caver5Proto33GenericMonsterControllerComponent10SharedCtorEv
00266889 T _ZN5Caver5Proto33GenericMonsterControllerComponent10SharedDtorEv
0024a725 T _ZN5Caver5Proto33GenericMonsterControllerComponent16default_instanceEv
002669ff T _ZN5Caver5Proto33GenericMonsterControllerComponent21CheckTypeAndMergeFromERKN6google8protobuf11MessageLiteE
0024a721 T _ZN5Caver5Proto33GenericMonsterControllerComponent21InitAsDefaultInstanceEv
002668f9 T _ZN5Caver5Proto33GenericMonsterControllerComponent27MergePartialFromCodedStreamEPN6google8protobuf2io16CodedInputStreamE
00266a29 T _ZN5Caver5Proto33GenericMonsterControllerComponent4SwapEPS1_
002668e9 T _ZN5Caver5Proto33GenericMonsterControllerComponent5ClearEv
00266a03 T _ZN5Caver5Proto33GenericMonsterControllerComponent8CopyFromERKS1_
002667ed T _ZN5Caver5Proto33GenericMonsterControllerComponent9MergeFromERKS1_
002667b5 T _ZN5Caver5Proto33GenericMonsterControllerComponentC1ERKS1_
00266791 T _ZN5Caver5Proto33GenericMonsterControllerComponentC1Ev
002667b5 T _ZN5Caver5Proto33GenericMonsterControllerComponentC2ERKS1_
00266791 T _ZN5Caver5Proto33GenericMonsterControllerComponentC2Ev
0026688d T _ZN5Caver5Proto33GenericMonsterControllerComponentD0Ev
00266875 T _ZN5Caver5Proto33GenericMonsterControllerComponentD1Ev
00266875 T _ZN5Caver5Proto33GenericMonsterControllerComponentD2Ev
00264bf5 T _ZN5Caver5Proto33LeapingMonsterControllerComponent10SharedCtorEv
00264ced T _ZN5Caver5Proto33LeapingMonsterControllerComponent10SharedDtorEv
0024a5d5 T _ZN5Caver5Proto33LeapingMonsterControllerComponent16default_instanceEv
00264f0d T _ZN5Caver5Proto33LeapingMonsterControllerComponent21CheckTypeAndMergeFromERKN6google8protobuf11MessageLiteE
0024a5d1 T _ZN5Caver5Proto33LeapingMonsterControllerComponent21InitAsDefaultInstanceEv
00264d5d T _ZN5Caver5Proto33LeapingMonsterControllerComponent27MergePartialFromCodedStreamEPN6google8protobuf2io16CodedInputStreamE
00264f37 T _ZN5Caver5Proto33LeapingMonsterControllerComponent4SwapEPS1_
00264d4d T _ZN5Caver5Proto33LeapingMonsterControllerComponent5ClearEv
00264f11 T _ZN5Caver5Proto33LeapingMonsterControllerComponent8CopyFromERKS1_
00264c3d T _ZN5Caver5Proto33LeapingMonsterControllerComponent9MergeFromERKS1_
00264c01 T _ZN5Caver5Proto33LeapingMonsterControllerComponentC1ERKS1_
00264bd9 T _ZN5Caver5Proto33LeapingMonsterControllerComponentC1Ev
00264c01 T _ZN5Caver5Proto33LeapingMonsterControllerComponentC2ERKS1_
00264bd9 T _ZN5Caver5Proto33LeapingMonsterControllerComponentC2Ev
00264cf1 T _ZN5Caver5Proto33LeapingMonsterControllerComponentD0Ev
00264cd9 T _ZN5Caver5Proto33LeapingMonsterControllerComponentD1Ev
00264cd9 T _ZN5Caver5Proto33LeapingMonsterControllerComponentD2Ev
00250741 T _ZN5Caver5Proto33ModelTransformControllerComponent10SharedCtorEv
00250909 T _ZN5Caver5Proto33ModelTransformControllerComponent10SharedDtorEv
00249bb9 T _ZN5Caver5Proto33ModelTransformControllerComponent16default_instanceEv
00250dd5 T _ZN5Caver5Proto33ModelTransformControllerComponent21CheckTypeAndMergeFromERKN6google8protobuf11MessageLiteE
00249ba5 T _ZN5Caver5Proto33ModelTransformControllerComponent21InitAsDefaultInstanceEv
002509c1 T _ZN5Caver5Proto33ModelTransformControllerComponent27MergePartialFromCodedStreamEPN6google8protobuf2io16CodedInputStreamE
00250dff T _ZN5Caver5Proto33ModelTransformControllerComponent4SwapEPS1_
0025098d T _ZN5Caver5Proto33ModelTransformControllerComponent5ClearEv
00250dd9 T _ZN5Caver5Proto33ModelTransformControllerComponent8CopyFromERKS1_
00250791 T _ZN5Caver5Proto33ModelTransformControllerComponent9MergeFromERKS1_
00250751 T _ZN5Caver5Proto33ModelTransformControllerComponentC1ERKS1_
0025071d T _ZN5Caver5Proto33ModelTransformControllerComponentC1Ev
00250751 T _ZN5Caver5Proto33ModelTransformControllerComponentC2ERKS1_
0025071d T _ZN5Caver5Proto33ModelTransformControllerComponentC2Ev
00250939 T _ZN5Caver5Proto33ModelTransformControllerComponentD0Ev
002508d1 T _ZN5Caver5Proto33ModelTransformControllerComponentD1Ev
002508d1 T _ZN5Caver5Proto33ModelTransformControllerComponentD2Ev
002365b5 T _ZN5Caver5Proto33protobuf_AddDesc_GameData_2eprotoEv
002632f1 T _ZN5Caver5Proto33WalkingMonsterControllerComponent10SharedCtorEv
002633d1 T _ZN5Caver5Proto33WalkingMonsterControllerComponent10SharedDtorEv
0024a509 T _ZN5Caver5Proto33WalkingMonsterControllerComponent16default_instanceEv
00263547 T _ZN5Caver5Proto33WalkingMonsterControllerComponent21CheckTypeAndMergeFromERKN6google8protobuf11MessageLiteE
0024a505 T _ZN5Caver5Proto33WalkingMonsterControllerComponent21InitAsDefaultInstanceEv
00263441 T _ZN5Caver5Proto33WalkingMonsterControllerComponent27MergePartialFromCodedStreamEPN6google8protobuf2io16CodedInputStreamE
00263571 T _ZN5Caver5Proto33WalkingMonsterControllerComponent4SwapEPS1_
00263431 T _ZN5Caver5Proto33WalkingMonsterControllerComponent5ClearEv
0026354b T _ZN5Caver5Proto33WalkingMonsterControllerComponent8CopyFromERKS1_
00263335 T _ZN5Caver5Proto33WalkingMonsterControllerComponent9MergeFromERKS1_
002632fd T _ZN5Caver5Proto33WalkingMonsterControllerComponentC1ERKS1_
002632d9 T _ZN5Caver5Proto33WalkingMonsterControllerComponentC1Ev
002632fd T _ZN5Caver5Proto33WalkingMonsterControllerComponentC2ERKS1_
002632d9 T _ZN5Caver5Proto33WalkingMonsterControllerComponentC2Ev
002633d5 T _ZN5Caver5Proto33WalkingMonsterControllerComponentD0Ev
002633bd T _ZN5Caver5Proto33WalkingMonsterControllerComponentD1Ev
002633bd T _ZN5Caver5Proto33WalkingMonsterControllerComponentD2Ev
00266001 T _ZN5Caver5Proto34BouncingMonsterControllerComponent10SharedCtorEv
00266125 T _ZN5Caver5Proto34BouncingMonsterControllerComponent10SharedDtorEv
0024a6c5 T _ZN5Caver5Proto34BouncingMonsterControllerComponent16default_instanceEv
002663f7 T _ZN5Caver5Proto34BouncingMonsterControllerComponent21CheckTypeAndMergeFromERKN6google8protobuf11MessageLiteE
0024a6c1 T _ZN5Caver5Proto34BouncingMonsterControllerComponent21InitAsDefaultInstanceEv
002661a1 T _ZN5Caver5Proto34BouncingMonsterControllerComponent27MergePartialFromCodedStreamEPN6google8protobuf2io16CodedInputStreamE
00266421 T _ZN5Caver5Proto34BouncingMonsterControllerComponent4SwapEPS1_
0026618d T _ZN5Caver5Proto34BouncingMonsterControllerComponent5ClearEv
002663fb T _ZN5Caver5Proto34BouncingMonsterControllerComponent8CopyFromERKS1_
00266051 T _ZN5Caver5Proto34BouncingMonsterControllerComponent9MergeFromERKS1_
00266011 T _ZN5Caver5Proto34BouncingMonsterControllerComponentC1ERKS1_
00265fdd T _ZN5Caver5Proto34BouncingMonsterControllerComponentC1Ev
00266011 T _ZN5Caver5Proto34BouncingMonsterControllerComponentC2ERKS1_
00265fdd T _ZN5Caver5Proto34BouncingMonsterControllerComponentC2Ev
00266129 T _ZN5Caver5Proto34BouncingMonsterControllerComponentD0Ev
00266111 T _ZN5Caver5Proto34BouncingMonsterControllerComponentD1Ev
00266111 T _ZN5Caver5Proto34BouncingMonsterControllerComponentD2Ev
002635f5 T _ZN5Caver5Proto34ChargingMonsterControllerComponent10SharedCtorEv
0026372d T _ZN5Caver5Proto34ChargingMonsterControllerComponent10SharedDtorEv
0024a539 T _ZN5Caver5Proto34ChargingMonsterControllerComponent16default_instanceEv
00263a8f T _ZN5Caver5Proto34ChargingMonsterControllerComponent21CheckTypeAndMergeFromERKN6google8protobuf11MessageLiteE
0024a535 T _ZN5Caver5Proto34ChargingMonsterControllerComponent21InitAsDefaultInstanceEv
002637b1 T _ZN5Caver5Proto34ChargingMonsterControllerComponent27MergePartialFromCodedStreamEPN6google8protobuf2io16CodedInputStreamE
00263ab9 T _ZN5Caver5Proto34ChargingMonsterControllerComponent4SwapEPS1_
00263795 T _ZN5Caver5Proto34ChargingMonsterControllerComponent5ClearEv
00263a93 T _ZN5Caver5Proto34ChargingMonsterControllerComponent8CopyFromERKS1_
00263645 T _ZN5Caver5Proto34ChargingMonsterControllerComponent9MergeFromERKS1_
00263605 T _ZN5Caver5Proto34ChargingMonsterControllerComponentC1ERKS1_
002635d1 T _ZN5Caver5Proto34ChargingMonsterControllerComponentC1Ev
00263605 T _ZN5Caver5Proto34ChargingMonsterControllerComponentC2ERKS1_
002635d1 T _ZN5Caver5Proto34ChargingMonsterControllerComponentC2Ev
00263731 T _ZN5Caver5Proto34ChargingMonsterControllerComponentD0Ev
00263719 T _ZN5Caver5Proto34ChargingMonsterControllerComponentD1Ev
00263719 T _ZN5Caver5Proto34ChargingMonsterControllerComponentD2Ev
0023ea59 T _ZN5Caver5Proto34protobuf_AddDesc_GameState_2eprotoEv
00265869 T _ZN5Caver5Proto34ShootingMonsterControllerComponent10SharedCtorEv
00265961 T _ZN5Caver5Proto34ShootingMonsterControllerComponent10SharedDtorEv
0024a665 T _ZN5Caver5Proto34ShootingMonsterControllerComponent16default_instanceEv
00265b81 T _ZN5Caver5Proto34ShootingMonsterControllerComponent21CheckTypeAndMergeFromERKN6google8protobuf11MessageLiteE
0024a661 T _ZN5Caver5Proto34ShootingMonsterControllerComponent21InitAsDefaultInstanceEv
002659d1 T _ZN5Caver5Proto34ShootingMonsterControllerComponent27MergePartialFromCodedStreamEPN6google8protobuf2io16CodedInputStreamE
00265bab T _ZN5Caver5Proto34ShootingMonsterControllerComponent4SwapEPS1_
002659c1 T _ZN5Caver5Proto34ShootingMonsterControllerComponent5ClearEv
00265b85 T _ZN5Caver5Proto34ShootingMonsterControllerComponent8CopyFromERKS1_
002658b1 T _ZN5Caver5Proto34ShootingMonsterControllerComponent9MergeFromERKS1_
00265875 T _ZN5Caver5Proto34ShootingMonsterControllerComponentC1ERKS1_
0026584d T _ZN5Caver5Proto34ShootingMonsterControllerComponentC1Ev
00265875 T _ZN5Caver5Proto34ShootingMonsterControllerComponentC2ERKS1_
0026584d T _ZN5Caver5Proto34ShootingMonsterControllerComponentC2Ev
00265965 T _ZN5Caver5Proto34ShootingMonsterControllerComponentD0Ev
0026594d T _ZN5Caver5Proto34ShootingMonsterControllerComponentD1Ev
0026594d T _ZN5Caver5Proto34ShootingMonsterControllerComponentD2Ev
00263b5d T _ZN5Caver5Proto34SnappingMonsterControllerComponent10SharedCtorEv
00263c95 T _ZN5Caver5Proto34SnappingMonsterControllerComponent10SharedDtorEv
0024a569 T _ZN5Caver5Proto34SnappingMonsterControllerComponent16default_instanceEv
00264059 T _ZN5Caver5Proto34SnappingMonsterControllerComponent21CheckTypeAndMergeFromERKN6google8protobuf11MessageLiteE
0024a565 T _ZN5Caver5Proto34SnappingMonsterControllerComponent21InitAsDefaultInstanceEv
00263d19 T _ZN5Caver5Proto34SnappingMonsterControllerComponent27MergePartialFromCodedStreamEPN6google8protobuf2io16CodedInputStreamE
00264083 T _ZN5Caver5Proto34SnappingMonsterControllerComponent4SwapEPS1_
00263cfd T _ZN5Caver5Proto34SnappingMonsterControllerComponent5ClearEv
0026405d T _ZN5Caver5Proto34SnappingMonsterControllerComponent8CopyFromERKS1_
00263bad T _ZN5Caver5Proto34SnappingMonsterControllerComponent9MergeFromERKS1_
00263b6d T _ZN5Caver5Proto34SnappingMonsterControllerComponentC1ERKS1_
00263b39 T _ZN5Caver5Proto34SnappingMonsterControllerComponentC1Ev
00263b6d T _ZN5Caver5Proto34SnappingMonsterControllerComponentC2ERKS1_
00263b39 T _ZN5Caver5Proto34SnappingMonsterControllerComponentC2Ev
00263c99 T _ZN5Caver5Proto34SnappingMonsterControllerComponentD0Ev
00263c81 T _ZN5Caver5Proto34SnappingMonsterControllerComponentD1Ev
00263c81 T _ZN5Caver5Proto34SnappingMonsterControllerComponentD2Ev
002676f1 T _ZN5Caver5Proto34SwingableWeaponControllerComponent10SharedCtorEv
002678a9 T _ZN5Caver5Proto34SwingableWeaponControllerComponent10SharedDtorEv
0024a791 T _ZN5Caver5Proto34SwingableWeaponControllerComponent16default_instanceEv
00267c3d T _ZN5Caver5Proto34SwingableWeaponControllerComponent21CheckTypeAndMergeFromERKN6google8protobuf11MessageLiteE
0024a78d T _ZN5Caver5Proto34SwingableWeaponControllerComponent21InitAsDefaultInstanceEv
002679d9 T _ZN5Caver5Proto34SwingableWeaponControllerComponent27MergePartialFromCodedStreamEPN6google8protobuf2io16CodedInputStreamE
00267c67 T _ZN5Caver5Proto34SwingableWeaponControllerComponent4SwapEPS1_
0026797d T _ZN5Caver5Proto34SwingableWeaponControllerComponent5ClearEv
00267c41 T _ZN5Caver5Proto34SwingableWeaponControllerComponent8CopyFromERKS1_
00267765 T _ZN5Caver5Proto34SwingableWeaponControllerComponent9MergeFromERKS1_
00267715 T _ZN5Caver5Proto34SwingableWeaponControllerComponentC1ERKS1_
002676b5 T _ZN5Caver5Proto34SwingableWeaponControllerComponentC1Ev
00267715 T _ZN5Caver5Proto34SwingableWeaponControllerComponentC2ERKS1_
002676b5 T _ZN5Caver5Proto34SwingableWeaponControllerComponentC2Ev
00267915 T _ZN5Caver5Proto34SwingableWeaponControllerComponentD0Ev
00267871 T _ZN5Caver5Proto34SwingableWeaponControllerComponentD1Ev
00267871 T _ZN5Caver5Proto34SwingableWeaponControllerComponentD2Ev
00245ded T _ZN5Caver5Proto35protobuf_ShutdownFile_Scene_2eprotoEv
002369f7 T _ZN5Caver5Proto36MapNode_Portal_PassDirection_IsValidEi
0022d0d1 T _ZN5Caver5Proto36protobuf_ShutdownFile_Common_2eprotoEv
00256289 T _ZN5Caver5Proto37BoneControlledCollisionShapeComponent10SharedCtorEv
002563e5 T _ZN5Caver5Proto37BoneControlledCollisionShapeComponent10SharedDtorEv
00249e11 T _ZN5Caver5Proto37BoneControlledCollisionShapeComponent16default_instanceEv
00256675 T _ZN5Caver5Proto37BoneControlledCollisionShapeComponent21CheckTypeAndMergeFromERKN6google8protobuf11MessageLiteE
00249e0d T _ZN5Caver5Proto37BoneControlledCollisionShapeComponent21InitAsDefaultInstanceEv
002564ad T _ZN5Caver5Proto37BoneControlledCollisionShapeComponent27MergePartialFromCodedStreamEPN6google8protobuf2io16CodedInputStreamE
0025669f T _ZN5Caver5Proto37BoneControlledCollisionShapeComponent4SwapEPS1_
00256475 T _ZN5Caver5Proto37BoneControlledCollisionShapeComponent5ClearEv
00256679 T _ZN5Caver5Proto37BoneControlledCollisionShapeComponent8CopyFromERKS1_
002562e5 T _ZN5Caver5Proto37BoneControlledCollisionShapeComponent9MergeFromERKS1_
002562a1 T _ZN5Caver5Proto37BoneControlledCollisionShapeComponentC1ERKS1_
00256265 T _ZN5Caver5Proto37BoneControlledCollisionShapeComponentC1Ev
002562a1 T _ZN5Caver5Proto37BoneControlledCollisionShapeComponentC2ERKS1_
00256265 T _ZN5Caver5Proto37BoneControlledCollisionShapeComponentC2Ev
0025641d T _ZN5Caver5Proto37BoneControlledCollisionShapeComponentD0Ev
002563ad T _ZN5Caver5Proto37BoneControlledCollisionShapeComponentD1Ev
002563ad T _ZN5Caver5Proto37BoneControlledCollisionShapeComponentD2Ev
002698b1 T _ZN5Caver5Proto37CollectableItemComponent_Type_IsValidEi
0023576d T _ZN5Caver5Proto37EditorViewState_SelectionMode_IsValidEi
002364b9 T _ZN5Caver5Proto38protobuf_ShutdownFile_GameData_2eprotoEv
0023e999 T _ZN5Caver5Proto39protobuf_ShutdownFile_GameState_2eprotoEv
0022e921 T _ZN5Caver5Proto3Box10SharedCtorEv
0022ea6d T _ZN5Caver5Proto3Box10SharedDtorEv
0022eaa9 T _ZN5Caver5Proto3Box16default_instanceEv
0022edb9 T _ZN5Caver5Proto3Box21CheckTypeAndMergeFromERKN6google8protobuf11MessageLiteE
0022d869 T _ZN5Caver5Proto3Box21InitAsDefaultInstanceEv
0022eb1d T _ZN5Caver5Proto3Box27MergePartialFromCodedStreamEPN6google8protobuf2io16CodedInputStreamE
0022ede3 T _ZN5Caver5Proto3Box4SwapEPS1_
0022eb01 T _ZN5Caver5Proto3Box5ClearEv
0022edbd T _ZN5Caver5Proto3Box8CopyFromERKS1_
0022e971 T _ZN5Caver5Proto3Box9MergeFromERKS1_
0022e931 T _ZN5Caver5Proto3BoxC1ERKS1_
0022e8fd T _ZN5Caver5Proto3BoxC1Ev
0022e931 T _ZN5Caver5Proto3BoxC2ERKS1_
0022e8fd T _ZN5Caver5Proto3BoxC2Ev
0022ea71 T _ZN5Caver5Proto3BoxD0Ev
0022ea59 T _ZN5Caver5Proto3BoxD1Ev
0022ea59 T _ZN5Caver5Proto3BoxD2Ev
00238aad T _ZN5Caver5Proto3Map10SharedCtorEv
00238bcd T _ZN5Caver5Proto3Map10SharedDtorEv
00238bf5 T _ZN5Caver5Proto3Map16default_instanceEv
00238ea7 T _ZN5Caver5Proto3Map21CheckTypeAndMergeFromERKN6google8protobuf11MessageLiteE
002369bb T _ZN5Caver5Proto3Map21InitAsDefaultInstanceEv
00238c7d T _ZN5Caver5Proto3Map27MergePartialFromCodedStreamEPN6google8protobuf2io16CodedInputStreamE
00238ed1 T _ZN5Caver5Proto3Map4SwapEPS1_
00238c51 T _ZN5Caver5Proto3Map5ClearEv
00238eab T _ZN5Caver5Proto3Map8CopyFromERKS1_
00238b0d T _ZN5Caver5Proto3Map9MergeFromERKS1_
00238ab5 T _ZN5Caver5Proto3MapC1ERKS1_
00238a85 T _ZN5Caver5Proto3MapC1Ev
00238ab5 T _ZN5Caver5Proto3MapC2ERKS1_
00238a85 T _ZN5Caver5Proto3MapC2Ev
00238bcf T _ZN5Caver5Proto3MapD0Ev
00238b91 T _ZN5Caver5Proto3MapD1Ev
00238b91 T _ZN5Caver5Proto3MapD2Ev
0025a835 T _ZN5Caver5Proto40ElevatorControllerComponent_Mode_IsValidEi
00235689 T _ZN5Caver5Proto40protobuf_AddDesc_EditorViewState_2eprotoEv
00252969 T _ZN5Caver5Proto41GroundMeshGeneratorComponent_Type_IsValidEi
00254679 T _ZN5Caver5Proto43CollisionShapeComponent_SpecialType_IsValidEi
00235671 T _ZN5Caver5Proto45protobuf_ShutdownFile_EditorViewState_2eprotoEv
00231c71 T _ZN5Caver5Proto4Font10SharedCtorEv
00232001 T _ZN5Caver5Proto4Font10SharedDtorEv
002320a9 T _ZN5Caver5Proto4Font16default_instanceEv
00232831 T _ZN5Caver5Proto4Font21CheckTypeAndMergeFromERKN6google8protobuf11MessageLiteE
0022d8ed T _ZN5Caver5Proto4Font21InitAsDefaultInstanceEv
002321d1 T _ZN5Caver5Proto4Font27MergePartialFromCodedStreamEPN6google8protobuf2io16CodedInputStreamE
0023285b T _ZN5Caver5Proto4Font4SwapEPS1_
0023212d T _ZN5Caver5Proto4Font5ClearEv
00232835 T _ZN5Caver5Proto4Font8CopyFromERKS1_
00231d15 T _ZN5Caver5Proto4Font9MergeFromERKS1_
00231c99 T _ZN5Caver5Proto4FontC1ERKS1_
00231c21 T _ZN5Caver5Proto4FontC1Ev
00231c99 T _ZN5Caver5Proto4FontC2ERKS1_
00231c21 T _ZN5Caver5Proto4FontC2Ev
00232081 T _ZN5Caver5Proto4FontD0Ev
00231fb5 T _ZN5Caver5Proto4FontD1Ev
00231fb5 T _ZN5Caver5Proto4FontD2Ev
00238fb1 T _ZN5Caver5Proto4Item10SharedCtorEv
0023928d T _ZN5Caver5Proto4Item10SharedDtorEv
00239355 T _ZN5Caver5Proto4Item16default_instanceEv
00239a63 T _ZN5Caver5Proto4Item21CheckTypeAndMergeFromERKN6google8protobuf11MessageLiteE
002369bd T _ZN5Caver5Proto4Item21InitAsDefaultInstanceEv
002394a9 T _ZN5Caver5Proto4Item27MergePartialFromCodedStreamEPN6google8protobuf2io16CodedInputStreamE
00239a8d T _ZN5Caver5Proto4Item4SwapEPS1_
002393ed T _ZN5Caver5Proto4Item5ClearEv
00239a67 T _ZN5Caver5Proto4Item8CopyFromERKS1_
00239085 T _ZN5Caver5Proto4Item9MergeFromERKS1_
00239001 T _ZN5Caver5Proto4ItemC1ERKS1_
00238f49 T _ZN5Caver5Proto4ItemC1Ev
00239001 T _ZN5Caver5Proto4ItemC2ERKS1_
00238f49 T _ZN5Caver5Proto4ItemC2Ev
0023932d T _ZN5Caver5Proto4ItemD0Ev
00239255 T _ZN5Caver5Proto4ItemD1Ev
00239255 T _ZN5Caver5Proto4ItemD2Ev
00270a5d T _ZN5Caver5Proto4Mesh10SharedCtorEv
00270fe5 T _ZN5Caver5Proto4Mesh10SharedDtorEv
002710c9 T _ZN5Caver5Proto4Mesh16default_instanceEv
00272135 T _ZN5Caver5Proto4Mesh21CheckTypeAndMergeFromERKN6google8protobuf11MessageLiteE
0024ac89 T _ZN5Caver5Proto4Mesh21InitAsDefaultInstanceEv
002712a9 T _ZN5Caver5Proto4Mesh27MergePartialFromCodedStreamEPN6google8protobuf2io16CodedInputStreamE
0027215f T _ZN5Caver5Proto4Mesh4SwapEPS1_
00271151 T _ZN5Caver5Proto4Mesh5ClearEv
00272139 T _ZN5Caver5Proto4Mesh8CopyFromERKS1_
00270b19 T _ZN5Caver5Proto4Mesh9MergeFromERKS1_
00270a95 T _ZN5Caver5Proto4MeshC1ERKS1_
00270a09 T _ZN5Caver5Proto4MeshC1Ev
00270a95 T _ZN5Caver5Proto4MeshC2ERKS1_
00270a09 T _ZN5Caver5Proto4MeshC2Ev
002710a1 T _ZN5Caver5Proto4MeshD0Ev
00270f99 T _ZN5Caver5Proto4MeshD1Ev
00270f99 T _ZN5Caver5Proto4MeshD2Ev
0025d41d T _ZN5Caver5Proto50EntityControllerComponent_MovementBehavior_IsValidEi
0023a481 T _ZN5Caver5Proto5Quest10SharedCtorEv
0023a6e5 T _ZN5Caver5Proto5Quest10SharedDtorEv
0023a7ad T _ZN5Caver5Proto5Quest16default_instanceEv
0023abcd T _ZN5Caver5Proto5Quest21CheckTypeAndMergeFromERKN6google8protobuf11MessageLiteE
002369c1 T _ZN5Caver5Proto5Quest21InitAsDefaultInstanceEv
0023a8d5 T _ZN5Caver5Proto5Quest27MergePartialFromCodedStreamEPN6google8protobuf2io16CodedInputStreamE
0023abf7 T _ZN5Caver5Proto5Quest4SwapEPS1_
0023a835 T _ZN5Caver5Proto5Quest5ClearEv
0023abd1 T _ZN5Caver5Proto5Quest8CopyFromERKS1_
0023a539 T _ZN5Caver5Proto5Quest9MergeFromERKS1_
0023a4c5 T _ZN5Caver5Proto5QuestC1ERKS1_
0023a429 T _ZN5Caver5Proto5QuestC1Ev
0023a4c5 T _ZN5Caver5Proto5QuestC2ERKS1_
0023a429 T _ZN5Caver5Proto5QuestC2Ev
0023a785 T _ZN5Caver5Proto5QuestD0Ev
0023a6ad T _ZN5Caver5Proto5QuestD1Ev
0023a6ad T _ZN5Caver5Proto5QuestD2Ev
0024e06d T _ZN5Caver5Proto5Scene10SharedCtorEv
0024e3d1 T _ZN5Caver5Proto5Scene10SharedDtorEv
0024e435 T _ZN5Caver5Proto5Scene16default_instanceEv
0024ec99 T _ZN5Caver5Proto5Scene21CheckTypeAndMergeFromERKN6google8protobuf11MessageLiteE
00249a6d T _ZN5Caver5Proto5Scene21InitAsDefaultInstanceEv
0024e529 T _ZN5Caver5Proto5Scene27MergePartialFromCodedStreamEPN6google8protobuf2io16CodedInputStreamE
0024ed15 T _ZN5Caver5Proto5Scene4SwapEPS1_
0024e4a9 T _ZN5Caver5Proto5Scene5ClearEv
0024ec9d T _ZN5Caver5Proto5Scene8CopyFromERKS1_
0024e0f1 T _ZN5Caver5Proto5Scene9MergeFromERKS1_
0024e07d T _ZN5Caver5Proto5SceneC1ERKS1_
0024e02d T _ZN5Caver5Proto5SceneC1Ev
0024e07d T _ZN5Caver5Proto5SceneC2ERKS1_
0024e02d T _ZN5Caver5Proto5SceneC2Ev
0024e40d T _ZN5Caver5Proto5SceneD0Ev
0024e371 T _ZN5Caver5Proto5SceneD1Ev
0024e371 T _ZN5Caver5Proto5SceneD2Ev
00239b71 T _ZN5Caver5Proto5Skill10SharedCtorEv
00239dbd T _ZN5Caver5Proto5Skill10SharedDtorEv
00239e65 T _ZN5Caver5Proto5Skill16default_instanceEv
0023a377 T _ZN5Caver5Proto5Skill21CheckTypeAndMergeFromERKN6google8protobuf11MessageLiteE
002369bf T _ZN5Caver5Proto5Skill21InitAsDefaultInstanceEv
00239f69 T _ZN5Caver5Proto5Skill27MergePartialFromCodedStreamEPN6google8protobuf2io16CodedInputStreamE
0023a3a1 T _ZN5Caver5Proto5Skill4SwapEPS1_
00239ee5 T _ZN5Caver5Proto5Skill5ClearEv
0023a37b T _ZN5Caver5Proto5Skill8CopyFromERKS1_
00239c15 T _ZN5Caver5Proto5Skill9MergeFromERKS1_
00239bad T _ZN5Caver5Proto5SkillC1ERKS1_
00239b2d T _ZN5Caver5Proto5SkillC1Ev
00239bad T _ZN5Caver5Proto5SkillC2ERKS1_
00239b2d T _ZN5Caver5Proto5SkillC2Ev
00239e3d T _ZN5Caver5Proto5SkillD0Ev
00239d85 T _ZN5Caver5Proto5SkillD1Ev
00239d85 T _ZN5Caver5Proto5SkillD2Ev
0022ee89 T _ZN5Caver5Proto6Circle10SharedCtorEv
0022eff5 T _ZN5Caver5Proto6Circle10SharedDtorEv
0022f039 T _ZN5Caver5Proto6Circle16default_instanceEv
0022f2d9 T _ZN5Caver5Proto6Circle21CheckTypeAndMergeFromERKN6google8protobuf11MessageLiteE
0022d86d T _ZN5Caver5Proto6Circle21InitAsDefaultInstanceEv
0022f0b1 T _ZN5Caver5Proto6Circle27MergePartialFromCodedStreamEPN6google8protobuf2io16CodedInputStreamE
0022f303 T _ZN5Caver5Proto6Circle4SwapEPS1_
0022f089 T _ZN5Caver5Proto6Circle5ClearEv
0022f2dd T _ZN5Caver5Proto6Circle8CopyFromERKS1_
0022eed1 T _ZN5Caver5Proto6Circle9MergeFromERKS1_
0022ee95 T _ZN5Caver5Proto6CircleC1ERKS1_
0022ee6d T _ZN5Caver5Proto6CircleC1Ev
0022ee95 T _ZN5Caver5Proto6CircleC2ERKS1_
0022ee6d T _ZN5Caver5Proto6CircleC2Ev
0022f011 T _ZN5Caver5Proto6CircleD0Ev
0022efa9 T _ZN5Caver5Proto6CircleD1Ev
0022efa9 T _ZN5Caver5Proto6CircleD2Ev
002370a1 T _ZN5Caver5Proto7MapNode10SharedCtorEv
0023749d T _ZN5Caver5Proto7MapNode10SharedDtorEv
00237561 T _ZN5Caver5Proto7MapNode16default_instanceEv
00237f59 T _ZN5Caver5Proto7MapNode21CheckTypeAndMergeFromERKN6google8protobuf11MessageLiteE
002369a9 T _ZN5Caver5Proto7MapNode21InitAsDefaultInstanceEv
002376d1 T _ZN5Caver5Proto7MapNode27MergePartialFromCodedStreamEPN6google8protobuf2io16CodedInputStreamE
00237f83 T _ZN5Caver5Proto7MapNode4SwapEPS1_
00237605 T _ZN5Caver5Proto7MapNode5ClearEv
00237f5d T _ZN5Caver5Proto7MapNode8CopyFromERKS1_
00237189 T _ZN5Caver5Proto7MapNode9MergeFromERKS1_
002370ed T _ZN5Caver5Proto7MapNodeC1ERKS1_
00237031 T _ZN5Caver5Proto7MapNodeC1Ev
002370ed T _ZN5Caver5Proto7MapNodeC2ERKS1_
00237031 T _ZN5Caver5Proto7MapNodeC2Ev
00237539 T _ZN5Caver5Proto7MapNodeD0Ev
00237451 T _ZN5Caver5Proto7MapNodeD1Ev
00237451 T _ZN5Caver5Proto7MapNodeD2Ev
002380b5 T _ZN5Caver5Proto7MapZone10SharedCtorEv
00238381 T _ZN5Caver5Proto7MapZone10SharedDtorEv
00238429 T _ZN5Caver5Proto7MapZone16default_instanceEv
002389d1 T _ZN5Caver5Proto7MapZone21CheckTypeAndMergeFromERKN6google8protobuf11MessageLiteE
002369b9 T _ZN5Caver5Proto7MapZone21InitAsDefaultInstanceEv
0023855d T _ZN5Caver5Proto7MapZone27MergePartialFromCodedStreamEPN6google8protobuf2io16CodedInputStreamE
002389fb T _ZN5Caver5Proto7MapZone4SwapEPS1_
002384bd T _ZN5Caver5Proto7MapZone5ClearEv
002389d5 T _ZN5Caver5Proto7MapZone8CopyFromERKS1_
00238171 T _ZN5Caver5Proto7MapZone9MergeFromERKS1_
002380ed T _ZN5Caver5Proto7MapZoneC1ERKS1_
00238055 T _ZN5Caver5Proto7MapZoneC1Ev
002380ed T _ZN5Caver5Proto7MapZoneC2ERKS1_
00238055 T _ZN5Caver5Proto7MapZoneC2Ev
00238401 T _ZN5Caver5Proto7MapZoneD0Ev
00238335 T _ZN5Caver5Proto7MapZoneD1Ev
00238335 T _ZN5Caver5Proto7MapZoneD2Ev
0022f39d T _ZN5Caver5Proto7Polygon10SharedCtorEv
0022f589 T _ZN5Caver5Proto7Polygon10SharedDtorEv
0022f5b1 T _ZN5Caver5Proto7Polygon16default_instanceEv
0022f95d T _ZN5Caver5Proto7Polygon21CheckTypeAndMergeFromERKN6google8protobuf11MessageLiteE
0022d895 T _ZN5Caver5Proto7Polygon21InitAsDefaultInstanceEv
0022f64d T _ZN5Caver5Proto7Polygon27MergePartialFromCodedStreamEPN6google8protobuf2io16CodedInputStreamE
0022f987 T _ZN5Caver5Proto7Polygon4SwapEPS1_
0022f615 T _ZN5Caver5Proto7Polygon5ClearEv
0022f961 T _ZN5Caver5Proto7Polygon8CopyFromERKS1_
0022f409 T _ZN5Caver5Proto7Polygon9MergeFromERKS1_
0022f3ad T _ZN5Caver5Proto7PolygonC1ERKS1_
0022f36d T _ZN5Caver5Proto7PolygonC1Ev
0022f3ad T _ZN5Caver5Proto7PolygonC2ERKS1_
0022f36d T _ZN5Caver5Proto7PolygonC2Ev
0022f58b T _ZN5Caver5Proto7PolygonD0Ev
0022f54d T _ZN5Caver5Proto7PolygonD1Ev
0022f54d T _ZN5Caver5Proto7PolygonD2Ev
00232931 T _ZN5Caver5Proto7Program10SharedCtorEv
00232b39 T _ZN5Caver5Proto7Program10SharedDtorEv
00232be1 T _ZN5Caver5Proto7Program16default_instanceEv
00232f31 T _ZN5Caver5Proto7Program21CheckTypeAndMergeFromERKN6google8protobuf11MessageLiteE
0022d975 T _ZN5Caver5Proto7Program21InitAsDefaultInstanceEv
00232cd9 T _ZN5Caver5Proto7Program27MergePartialFromCodedStreamEPN6google8protobuf2io16CodedInputStreamE
00232f5b T _ZN5Caver5Proto7Program4SwapEPS1_
00232c5d T _ZN5Caver5Proto7Program5ClearEv
00232f35 T _ZN5Caver5Proto7Program8CopyFromERKS1_
002329c9 T _ZN5Caver5Proto7Program9MergeFromERKS1_
00232969 T _ZN5Caver5Proto7ProgramC1ERKS1_
002328ed T _ZN5Caver5Proto7ProgramC1Ev
00232969 T _ZN5Caver5Proto7ProgramC2ERKS1_
002328ed T _ZN5Caver5Proto7ProgramC2Ev
00232bb9 T _ZN5Caver5Proto7ProgramD0Ev
00232b01 T _ZN5Caver5Proto7ProgramD1Ev
00232b01 T _ZN5Caver5Proto7ProgramD2Ev
00230ac1 T _ZN5Caver5Proto7Texture10SharedCtorEv
00230d69 T _ZN5Caver5Proto7Texture10SharedDtorEv
00230de5 T _ZN5Caver5Proto7Texture16default_instanceEv
002313e1 T _ZN5Caver5Proto7Texture21CheckTypeAndMergeFromERKN6google8protobuf11MessageLiteE
0022d899 T _ZN5Caver5Proto7Texture21InitAsDefaultInstanceEv
00230ed5 T _ZN5Caver5Proto7Texture27MergePartialFromCodedStreamEPN6google8protobuf2io16CodedInputStreamE
0023140b T _ZN5Caver5Proto7Texture4SwapEPS1_
00230e5d T _ZN5Caver5Proto7Texture5ClearEv
002313e5 T _ZN5Caver5Proto7Texture8CopyFromERKS1_
00230b49 T _ZN5Caver5Proto7Texture9MergeFromERKS1_
00230add T _ZN5Caver5Proto7TextureC1ERKS1_
00230a7d T _ZN5Caver5Proto7TextureC1Ev
00230add T _ZN5Caver5Proto7TextureC2ERKS1_
00230a7d T _ZN5Caver5Proto7TextureC2Ev
00230dbd T _ZN5Caver5Proto7TextureD0Ev
00230d1d T _ZN5Caver5Proto7TextureD1Ev
00230d1d T _ZN5Caver5Proto7TextureD2Ev
0022dcf9 T _ZN5Caver5Proto7Vector210SharedCtorEv
0022ddf1 T _ZN5Caver5Proto7Vector210SharedDtorEv
0022de2d T _ZN5Caver5Proto7Vector216default_instanceEv
0022dfd7 T _ZN5Caver5Proto7Vector221CheckTypeAndMergeFromERKN6google8protobuf11MessageLiteE
0022d863 T _ZN5Caver5Proto7Vector221InitAsDefaultInstanceEv
0022de8d T _ZN5Caver5Proto7Vector227MergePartialFromCodedStreamEPN6google8protobuf2io16CodedInputStreamE
0022e001 T _ZN5Caver5Proto7Vector24SwapEPS1_
0022de7d T _ZN5Caver5Proto7Vector25ClearEv
0022dfdb T _ZN5Caver5Proto7Vector28CopyFromERKS1_
0022dd41 T _ZN5Caver5Proto7Vector29MergeFromERKS1_
0022dd05 T _ZN5Caver5Proto7Vector2C1ERKS1_
0022dcdd T _ZN5Caver5Proto7Vector2C1Ev
0022dd05 T _ZN5Caver5Proto7Vector2C2ERKS1_
0022dcdd T _ZN5Caver5Proto7Vector2C2Ev
0022ddf5 T _ZN5Caver5Proto7Vector2D0Ev
0022dddd T _ZN5Caver5Proto7Vector2D1Ev
0022dddd T _ZN5Caver5Proto7Vector2D2Ev
0022e08d T _ZN5Caver5Proto7Vector310SharedCtorEv
0022e1a1 T _ZN5Caver5Proto7Vector310SharedDtorEv
0022e1dd T _ZN5Caver5Proto7Vector316default_instanceEv
0022e3df T _ZN5Caver5Proto7Vector321CheckTypeAndMergeFromERKN6google8protobuf11MessageLiteE
0022d865 T _ZN5Caver5Proto7Vector321InitAsDefaultInstanceEv
0022e249 T _ZN5Caver5Proto7Vector327MergePartialFromCodedStreamEPN6google8protobuf2io16CodedInputStreamE
0022e409 T _ZN5Caver5Proto7Vector34SwapEPS1_
0022e235 T _ZN5Caver5Proto7Vector35ClearEv
0022e3e3 T _ZN5Caver5Proto7Vector38CopyFromERKS1_
0022e0dd T _ZN5Caver5Proto7Vector39MergeFromERKS1_
0022e09d T _ZN5Caver5Proto7Vector3C1ERKS1_
0022e069 T _ZN5Caver5Proto7Vector3C1Ev
0022e09d T _ZN5Caver5Proto7Vector3C2ERKS1_
0022e069 T _ZN5Caver5Proto7Vector3C2Ev
0022e1a5 T _ZN5Caver5Proto7Vector3D0Ev
0022e18d T _ZN5Caver5Proto7Vector3D1Ev
0022e18d T _ZN5Caver5Proto7Vector3D2Ev
0022d9dd T _ZN5Caver5Proto8DateTime10SharedCtorEv
0022dac5 T _ZN5Caver5Proto8DateTime10SharedDtorEv
0022db01 T _ZN5Caver5Proto8DateTime16default_instanceEv
0022dc4b T _ZN5Caver5Proto8DateTime21CheckTypeAndMergeFromERKN6google8protobuf11MessageLiteE
0022d861 T _ZN5Caver5Proto8DateTime21InitAsDefaultInstanceEv
0022db61 T _ZN5Caver5Proto8DateTime27MergePartialFromCodedStreamEPN6google8protobuf2io16CodedInputStreamE
0022dc75 T _ZN5Caver5Proto8DateTime4SwapEPS1_
0022db51 T _ZN5Caver5Proto8DateTime5ClearEv
0022dc4f T _ZN5Caver5Proto8DateTime8CopyFromERKS1_
0022da25 T _ZN5Caver5Proto8DateTime9MergeFromERKS1_
0022d9e9 T _ZN5Caver5Proto8DateTimeC1ERKS1_
0022d9c1 T _ZN5Caver5Proto8DateTimeC1Ev
0022d9e9 T _ZN5Caver5Proto8DateTimeC2ERKS1_
0022d9c1 T _ZN5Caver5Proto8DateTimeC2Ev
0022dac9 T _ZN5Caver5Proto8DateTimeD0Ev
0022dab1 T _ZN5Caver5Proto8DateTimeD1Ev
0022dab1 T _ZN5Caver5Proto8DateTimeD2Ev
0023d4f5 T _ZN5Caver5Proto8GameData10SharedCtorEv
0023d92d T _ZN5Caver5Proto8GameData10SharedDtorEv
0023d955 T _ZN5Caver5Proto8GameData16default_instanceEv
0023e311 T _ZN5Caver5Proto8GameData21CheckTypeAndMergeFromERKN6google8protobuf11MessageLiteE
002369dd T _ZN5Caver5Proto8GameData21InitAsDefaultInstanceEv
0023da49 T _ZN5Caver5Proto8GameData27MergePartialFromCodedStreamEPN6google8protobuf2io16CodedInputStreamE
0023e33b T _ZN5Caver5Proto8GameData4SwapEPS1_
0023d991 T _ZN5Caver5Proto8GameData5ClearEv
0023e315 T _ZN5Caver5Proto8GameData8CopyFromERKS1_
0023d5b5 T _ZN5Caver5Proto8GameData9MergeFromERKS1_
0023d501 T _ZN5Caver5Proto8GameDataC1ERKS1_
0023d491 T _ZN5Caver5Proto8GameDataC1Ev
0023d501 T _ZN5Caver5Proto8GameDataC2ERKS1_
0023d491 T _ZN5Caver5Proto8GameDataC2Ev
0023d92f T _ZN5Caver5Proto8GameDataD0Ev
0023d8a1 T _ZN5Caver5Proto8GameDataD1Ev
0023d8a1 T _ZN5Caver5Proto8GameDataD2Ev
0026fb8d T _ZN5Caver5Proto8MeshData10SharedCtorEv
0026fcb5 T _ZN5Caver5Proto8MeshData10SharedDtorEv
0026fcf1 T _ZN5Caver5Proto8MeshData16default_instanceEv
00270019 T _ZN5Caver5Proto8MeshData21CheckTypeAndMergeFromERKN6google8protobuf11MessageLiteE
0024ac65 T _ZN5Caver5Proto8MeshData21InitAsDefaultInstanceEv
0026fd5d T _ZN5Caver5Proto8MeshData27MergePartialFromCodedStreamEPN6google8protobuf2io16CodedInputStreamE
00270043 T _ZN5Caver5Proto8MeshData4SwapEPS1_
0026fd45 T _ZN5Caver5Proto8MeshData5ClearEv
0027001d T _ZN5Caver5Proto8MeshData8CopyFromERKS1_
0026fbe1 T _ZN5Caver5Proto8MeshData9MergeFromERKS1_
0026fba1 T _ZN5Caver5Proto8MeshDataC1ERKS1_
0026fb6d T _ZN5Caver5Proto8MeshDataC1Ev
0026fba1 T _ZN5Caver5Proto8MeshDataC2ERKS1_
0026fb6d T _ZN5Caver5Proto8MeshDataC2Ev
0026fcb9 T _ZN5Caver5Proto8MeshDataD0Ev
0026fca1 T _ZN5Caver5Proto8MeshDataD1Ev
0026fca1 T _ZN5Caver5Proto8MeshDataD2Ev
0024adc9 T _ZN5Caver5Proto9Component10SharedCtorEv
0024afd1 T _ZN5Caver5Proto9Component10SharedDtorEv
00249aa5 T _ZN5Caver5Proto9Component16default_instanceEv
0024b411 T _ZN5Caver5Proto9Component21CheckTypeAndMergeFromERKN6google8protobuf11MessageLiteE
00249a15 T _ZN5Caver5Proto9Component21InitAsDefaultInstanceEv
0024b0e9 T _ZN5Caver5Proto9Component27MergePartialFromCodedStreamEPN6google8protobuf2io16CodedInputStreamE
0024b43d T _ZN5Caver5Proto9Component4SwapEPS1_
0024b085 T _ZN5Caver5Proto9Component5ClearEv
0024b415 T _ZN5Caver5Proto9Component8CopyFromERKS1_
0024ae61 T _ZN5Caver5Proto9Component9MergeFromERKS1_
0024aded T _ZN5Caver5Proto9ComponentC1ERKS1_
0024ad71 T _ZN5Caver5Proto9ComponentC1Ev
0024aded T _ZN5Caver5Proto9ComponentC2ERKS1_
0024ad71 T _ZN5Caver5Proto9ComponentC2Ev
0024b03d T _ZN5Caver5Proto9ComponentD0Ev
0024af89 T _ZN5Caver5Proto9ComponentD1Ev
0024af89 T _ZN5Caver5Proto9ComponentD2Ev
00242119 T _ZN5Caver5Proto9GameState10SharedCtorEv
00242361 T _ZN5Caver5Proto9GameState10SharedDtorEv
0023f43d T _ZN5Caver5Proto9GameState16default_instanceEv
00243895 T _ZN5Caver5Proto9GameState21CheckTypeAndMergeFromERKN6google8protobuf11MessageLiteE
0023edc9 T _ZN5Caver5Proto9GameState21InitAsDefaultInstanceEv
00242641 T _ZN5Caver5Proto9GameState27MergePartialFromCodedStreamEPN6google8protobuf2io16CodedInputStreamE
00243cbb T _ZN5Caver5Proto9GameState4SwapEPS1_
0023fcbd T _ZN5Caver5Proto9GameState5ClearEv
00243c95 T _ZN5Caver5Proto9GameState8CopyFromERKS1_
002409b9 T _ZN5Caver5Proto9GameState9MergeFromERKS1_
002421e5 T _ZN5Caver5Proto9GameStateC1ERKS1_
00242051 T _ZN5Caver5Proto9GameStateC1Ev
002421e5 T _ZN5Caver5Proto9GameStateC2ERKS1_
00242051 T _ZN5Caver5Proto9GameStateC2Ev
002424d1 T _ZN5Caver5Proto9GameStateD0Ev
002422ed T _ZN5Caver5Proto9GameStateD1Ev
002422ed T _ZN5Caver5Proto9GameStateD2Ev
00241abd T _ZN5Caver5Proto9QuestText10SharedCtorEv
00241cad T _ZN5Caver5Proto9QuestText10SharedDtorEv
00241d0d T _ZN5Caver5Proto9QuestText16default_instanceEv
00241fb3 T _ZN5Caver5Proto9QuestText21CheckTypeAndMergeFromERKN6google8protobuf11MessageLiteE
0023edc7 T _ZN5Caver5Proto9QuestText21InitAsDefaultInstanceEv
00241dbd T _ZN5Caver5Proto9QuestText27MergePartialFromCodedStreamEPN6google8protobuf2io16CodedInputStreamE
00241fdd T _ZN5Caver5Proto9QuestText4SwapEPS1_
00241d81 T _ZN5Caver5Proto9QuestText5ClearEv
00241fb7 T _ZN5Caver5Proto9QuestText8CopyFromERKS1_
00241b35 T _ZN5Caver5Proto9QuestText9MergeFromERKS1_
00241ad1 T _ZN5Caver5Proto9QuestTextC1ERKS1_
00241a81 T _ZN5Caver5Proto9QuestTextC1Ev
00241ad1 T _ZN5Caver5Proto9QuestTextC2ERKS1_
00241a81 T _ZN5Caver5Proto9QuestTextC2Ev
00241ce5 T _ZN5Caver5Proto9QuestTextD0Ev
00241c61 T _ZN5Caver5Proto9QuestTextD1Ev
00241c61 T _ZN5Caver5Proto9QuestTextD2Ev
0022e49d T _ZN5Caver5Proto9Rectangle10SharedCtorEv
0022e5c1 T _ZN5Caver5Proto9Rectangle10SharedDtorEv
0022e5fd T _ZN5Caver5Proto9Rectangle16default_instanceEv
0022e85b T _ZN5Caver5Proto9Rectangle21CheckTypeAndMergeFromERKN6google8protobuf11MessageLiteE
0022d867 T _ZN5Caver5Proto9Rectangle21InitAsDefaultInstanceEv
0022e669 T _ZN5Caver5Proto9Rectangle27MergePartialFromCodedStreamEPN6google8protobuf2io16CodedInputStreamE
0022e885 T _ZN5Caver5Proto9Rectangle4SwapEPS1_
0022e655 T _ZN5Caver5Proto9Rectangle5ClearEv
0022e85f T _ZN5Caver5Proto9Rectangle8CopyFromERKS1_
0022e4ed T _ZN5Caver5Proto9Rectangle9MergeFromERKS1_
0022e4ad T _ZN5Caver5Proto9RectangleC1ERKS1_
0022e479 T _ZN5Caver5Proto9RectangleC1Ev
0022e4ad T _ZN5Caver5Proto9RectangleC2ERKS1_
0022e479 T _ZN5Caver5Proto9RectangleC2Ev
0022e5c5 T _ZN5Caver5Proto9RectangleD0Ev
0022e5ad T _ZN5Caver5Proto9RectangleD1Ev
0022e5ad T _ZN5Caver5Proto9RectangleD2Ev
002a6f11 T _ZN5Caver5Quest23LoadFromProtobufMessageERKNS_5Proto5QuestE
002a6ef5 T _ZN5Caver5QuestC1Ev
002a6ef5 T _ZN5Caver5QuestC2Ev
002eab9d T _ZN5Caver5Scene10DrawModelsEPNS_16RenderingContextERKNS_7Matrix4Ebb
002e9bb1 T _ZN5Caver5Scene10FinishLoadEv
002ec505 T _ZN5Caver5Scene10TouchBeganERKNS_7FWTouchE
002ec5e7 T _ZN5Caver5Scene10TouchEndedERKNS_7FWTouchE
002ec5e5 T _ZN5Caver5Scene10TouchMovedERKNS_7FWTouchE
002ec209 T _ZN5Caver5Scene11RemoveGroupERKN5boost13intrusive_ptrINS_16SceneObjectGroupEEE
002ec343 T _ZN5Caver5Scene12GetAllGroupsEPSt6vectorIN5boost13intrusive_ptrINS_16SceneObjectGroupEEESaIS5_EE
002e9535 T _ZN5Caver5Scene12LoadFromFileERKSs
002ea131 T _ZN5Caver5Scene12RemoveObjectERKN5boost13intrusive_ptrINS_11SceneObjectEEEb
002ec315 T _ZN5Caver5Scene13GetAllObjectsEPSt6vectorIN5boost13intrusive_ptrINS_11SceneObjectEEESaIS5_EE
002ea1f1 T _ZN5Caver5Scene14ActivateObjectERKN5boost13intrusive_ptrINS_11SceneObjectEEE
002ea325 T _ZN5Caver5Scene14RegisterObjectEPNS_11SceneObjectE
002ec5e9 T _ZN5Caver5Scene14TouchCancelledERKNS_7FWTouchE
002eaa31 T _ZN5Caver5Scene15IsObjectVisibleEPNS_11SceneObjectE
002e9201 T _ZN5Caver5Scene15RegisterLibraryEv
002eaaa1 T _ZN5Caver5Scene16DrawGroundMeshesEPNS_16RenderingContextERKNS_7Matrix4Eb
002ec051 T _ZN5Caver5Scene19GroupWithIdentifierERKSsb
002e9a6f T _ZN5Caver5Scene20ObjectWithIdentifierERKSs
002ea34d T _ZN5Caver5Scene20RegisterNewComponentERKN5boost13intrusive_ptrINS_9ComponentEEE
002ec27d T _ZN5Caver5Scene22GroupIdentifierChangedERKSsS2_
002e959d T _ZN5Caver5Scene23LoadFromProtobufMessageERKNS_5Proto5SceneE
002ebfb9 T _ZN5Caver5Scene23ObjectIdentifierChangedERKSsS2_
002ea361 T _ZN5Caver5Scene23UpdateObjectWorldBoundsERKN5boost13intrusive_ptrINS_11SceneObjectEEE
002e9e81 T _ZN5Caver5Scene26MakeUniqueObjectIdentifierERKSs
002ec395 T _ZN5Caver5Scene27LineSegmentIntersectsGroundERKNS_11LineSegmentEffPNS_7Vector2E
002ea3dd T _ZN5Caver5Scene31UpdateCollisionShapeWorldBoundsEPNS_23CollisionShapeComponentE
002ea357 T _ZN5Caver5Scene34RegisterObjectForWorldBoundsUpdateERKN5boost13intrusive_ptrINS_11SceneObjectEEE
002ea125 T _ZN5Caver5Scene34RegisterObjectWaitingForActivationERKN5boost13intrusive_ptrINS_11SceneObjectEEE
002eacf1 T _ZN5Caver5Scene4DrawEPNS_16RenderingContextERKNS_7Matrix4E
002ea411 T _ZN5Caver5Scene6UpdateEf
002e9b89 T _ZN5Caver5Scene7ProcessEPNS_22SceneProcessingContextE
002e9a9d T _ZN5Caver5Scene8AddGroupERKN5boost13intrusive_ptrINS_16SceneObjectGroupEEE
002e9d39 T _ZN5Caver5Scene9AddObjectERKN5boost13intrusive_ptrINS_11SceneObjectEEE
002e9cd1 T _ZN5Caver5Scene9SetBoundsERKNS_9RectangleE
002ec5eb T _ZN5Caver5Scene9SetPausedEb
002e8d99 T _ZN5Caver5SceneC1Ev
002e8d99 T _ZN5Caver5SceneC2Ev
002e9511 T _ZN5Caver5SceneD0Ev
002e929d T _ZN5Caver5SceneD1Ev
002e929d T _ZN5Caver5SceneD2Ev
002a7179 T _ZN5Caver5Skill23LoadFromProtobufMessageERKNS_5Proto5SkillE
002e3021 T _ZN5Caver6Camera12AABBOnZPlaneEf
002e30d5 T _ZN5Caver6Camera13AABBForZRangeEff
002e3475 T _ZN5Caver6Camera14SetAspectRatioEf
002e34bd T _ZN5Caver6Camera18EvaluateViewMatrixEv
002e328d T _ZN5Caver6Camera18SetOrthoProjectionEffff
002e3365 T _ZN5Caver6Camera19SetProjectionMatrixERKNS_7Matrix4E
002e33c9 T _ZN5Caver6Camera24SetPerspectiveProjectionEffff
002e31a9 T _ZN5Caver6Camera25VisibleAreaSizeAtDistanceEf
002e31df T _ZN5Caver6Camera27DistanceForVisibleAreaWidthEf
002e320f T _ZN5Caver6Camera28DistanceForVisibleAreaHeightEf
002e3235 T _ZN5Caver6Camera29MinDistanceForVisibleAreaSizeERKNS_7Vector2E
0031cb0d T _ZN5Caver6Sprite12AddRectangleERKNS_9RectangleES3_RKNS_5ColorE
0031d5ff T _ZN5Caver6Sprite14TranslateFacesEiiRKNS_7Vector2E
0031d3e5 T _ZN5Caver6Sprite15InitWithTextureERKN5boost13intrusive_ptrINS_7TextureEEERKNS_9RectangleE
0031d2b5 T _ZN5Caver6Sprite16AddTriangleStripEiPKNS_7Vector2ES3_RKNS_5ColorE
0031d4cd T _ZN5Caver6Sprite16CreateVertexDataEiPKNS_7Vector2EiPt
0031ca85 T _ZN5Caver6Sprite17ResizeIndexBufferEi
0031ca11 T _ZN5Caver6Sprite18ResizeVertexBufferEi
0031cec9 T _ZN5Caver6Sprite20AddGradientRectangleERKNS_9RectangleES3_RKN5boost10shared_ptrINS_13GradientColorEEE
0031caf3 T _ZN5Caver6Sprite21InitWithMaxRectanglesERKN5boost13intrusive_ptrINS_7TextureEEEib
0031d355 T _ZN5Caver6Sprite22AddTrianglesFromSpriteEPS0_
0031cd2d T _ZN5Caver6Sprite23AddTransformedRectangleERKNS_9RectangleES3_RKNS_7Matrix4ERKNS_5ColorE
0031d7ad T _ZN5Caver6Sprite25TexCoordForVertexLocationERKNS_7Vector2E
0031c9b5 T _ZN5Caver6Sprite4InitERKN5boost13intrusive_ptrINS_7TextureEEEiib
0031d3dd T _ZN5Caver6Sprite5ClearEv
0031d651 T _ZN5Caver6Sprite5ScaleEfRKNS_7Vector2E
0031d26b T _ZN5Caver6Sprite7AddFaceEiii
0031d0a9 T _ZN5Caver6Sprite7AddLineERKNS_7Vector2ES3_fRKNS_9RectangleERKNS_5ColorE
0031cc35 T _ZN5Caver6Sprite7AddQuadEPKNS_7Vector2ES3_PKNS_5ColorE
0031d769 T _ZN5Caver6Sprite8AddFacesEiPt
0031d201 T _ZN5Caver6Sprite9AddVertexERKNS_7Vector2ES3_RKNS_5ColorE
0031d5b9 T _ZN5Caver6Sprite9TranslateERKNS_7Vector2E
002a7ab1 T _ZN5Caver7CoinBar10UpdateTextEv
002a7825 T _ZN5Caver7CoinBar14LayoutSubviewsEv
002a7925 T _ZN5Caver7CoinBar15SetCurrentCoinsEi
002a7829 T _ZN5Caver7CoinBar16CreateIconSpriteEv
002a792d T _ZN5Caver7CoinBar6UpdateEf
002a7be5 T _ZN5Caver7CoinBar8DrawRectEPNS_16RenderingContextERKNS_9RectangleERKNS_7Matrix4E
002a73b1 T _ZN5Caver7CoinBarC1Ev
002a73b1 T _ZN5Caver7CoinBarC2Ev
0030d03b T _ZN5Caver7FWMouse11AddListenerEPNS_16IFWMouseListenerE
0030ce65 T _ZN5Caver7FWMouse11sharedMouseEv
0030d055 T _ZN5Caver7FWMouse14RemoveListenerEPNS_16IFWMouseListenerE
0030cfa7 T _ZN5Caver7FWMouse16SendMouseUpEventERKNS_7Vector2Ejd
0030d0e7 T _ZN5Caver7FWMouse18RemoveAllListenersEv
0030cee9 T _ZN5Caver7FWMouse18SendMouseDownEventERKNS_7Vector2Ejd
0030cf35 T _ZN5Caver7FWMouse19SendMouseMovedEventERKNS_7Vector2Ejd
0030cff3 T _ZN5Caver7FWMouse26SendMouseWheelRotatedEventEfjd
002f6165 T _ZN5Caver7FWShell10TouchBeganERKNS_7FWTouchE
002f6235 T _ZN5Caver7FWShell10TouchEndedERKNS_7FWTouchE
002f61a1 T _ZN5Caver7FWShell10TouchMovedERKNS_7FWTouchE
002f5e9f T _ZN5Caver7FWShell11AddArgumentERKSs
002f5ea5 T _ZN5Caver7FWShell11DrawTouchesEPNS_16RenderingContextE
002f6285 T _ZN5Caver7FWShell14TouchCancelledERKNS_7FWTouchE
002f5de5 T _ZN5Caver7FWShellC1Ev
002f5de5 T _ZN5Caver7FWShellC2Ev
002f5e7d T _ZN5Caver7FWShellD0Ev
002f5e41 T _ZN5Caver7FWShellD1Ev
002f5e41 T _ZN5Caver7FWShellD2Ev
0030d12b T _ZN5Caver7FWTouchaSERKS0_
0030d105 T _ZN5Caver7FWTouchC1ERKS0_
0030d105 T _ZN5Caver7FWTouchC2ERKS0_
0030671d T _ZN5Caver7GUIView10AddSubviewERKN5boost10shared_ptrIS0_EE
00306c3d T _ZN5Caver7GUIView11UndoManagerEv
00306991 T _ZN5Caver7GUIView12AddAnimationERKN5boost10shared_ptrINS_12GUIAnimationEEE
00306729 T _ZN5Caver7GUIView13InsertSubviewESt14_List_iteratorIN5boost10shared_ptrIS0_EEERKS4_
003068a1 T _ZN5Caver7GUIView14IsDescendantOfEPS0_
003065e5 T _ZN5Caver7GUIView14LayoutSubviewsEv
00306975 T _ZN5Caver7GUIView15DidMoveToWindowEv
00305f85 T _ZN5Caver7GUIView15DrawSubviewRectEPS0_PNS_16RenderingContextERKNS_9RectangleERKNS_7Matrix4E
00305ef5 T _ZN5Caver7GUIView16DismissModalViewEPS0_
00306d59 T _ZN5Caver7GUIView16IsFirstResponderEv
00305f0f T _ZN5Caver7GUIView16IsSubviewRemovedERKN5boost10shared_ptrIS0_EE
00306bdf T _ZN5Caver7GUIView16PresentModalViewERKN5boost10shared_ptrIS0_EEb
003069c5 T _ZN5Caver7GUIView17AddPopupAnimationEv
003066f5 T _ZN5Caver7GUIView17RemoveAllSubviewsEv
00306c4b T _ZN5Caver7GUIView18DismissPopoverViewEv
00307335 T _ZN5Caver7GUIView18SetOrthoProjectionEPNS_16RenderingContextERKNS_7Matrix4E
003068dd T _ZN5Caver7GUIView19BringSubviewToFrontEPS0_
003069ad T _ZN5Caver7GUIView19RemoveAllAnimationsEv
00306811 T _ZN5Caver7GUIView19RemoveFromSuperviewEv
00306c69 T _ZN5Caver7GUIView20BecomeFirstResponderEv
003067dd T _ZN5Caver7GUIView20InsertSubviewAtIndexEiRKN5boost10shared_ptrIS0_EE
00305f1f T _ZN5Caver7GUIView20PurgeRemovedSubviewsEv
00306cdd T _ZN5Caver7GUIView20ResignFirstResponderEv
00306bd1 T _ZN5Caver7GUIView21ContainingPopoverViewEv
00306c65 T _ZN5Caver7GUIView23CanBecomeFirstResponderEv
00306bfd T _ZN5Caver7GUIView24DragAndDropItemWithTouchERKNS_7FWTouchERKN5boost10shared_ptrINS_16GUIDraggableItemEEE
00306c19 T _ZN5Caver7GUIView25DraggableItemDidEnterViewEPNS_16GUIDraggableItemE
00306c25 T _ZN5Caver7GUIView25DraggableItemDidLeaveViewEPNS_16GUIDraggableItemE
00306781 T _ZN5Caver7GUIView25InsertSubviewBelowSubviewERKN5boost10shared_ptrIS0_EEPS0_
00306c31 T _ZN5Caver7GUIView28DraggableItemDidDropIntoViewEPNS_16GUIDraggableItemE
0030737d T _ZN5Caver7GUIView31FindAndSetSubviewFirstResponderEv
00306b59 T _ZN5Caver7GUIView31PresentPopoverViewFromRectangleERKN5boost10shared_ptrIS0_EERKNS_9RectangleEj
003068b5 T _ZN5Caver7GUIView33FindAndSetSuperviewFirstResponderEv
003073b5 T _ZN5Caver7GUIView41SetTouchBoundsToIncludeSubviewTouchBoundsEv
00305dc7 T _ZN5Caver7GUIView6UpdateEf
00306c57 T _ZN5Caver7GUIView6WindowEv
00306ddd T _ZN5Caver7GUIView7HitTestERKNS_7Vector2E
00306421 T _ZN5Caver7GUIView8DrawRectEPNS_16RenderingContextERKNS_9RectangleERKNS_7Matrix4E
003066a1 T _ZN5Caver7GUIView8SetFrameERKNS_9RectangleE
003071f9 T _ZN5Caver7GUIView9SetBoundsERKNS_9RectangleE
00305cc5 T _ZN5Caver7GUIViewC1Ev
00305cc5 T _ZN5Caver7GUIViewC2Ev
00305da5 T _ZN5Caver7GUIViewD0Ev
00305d25 T _ZN5Caver7GUIViewD1Ev
00305d25 T _ZN5Caver7GUIViewD2Ev
002270a1 T _ZN5Caver7IsAnEarEPNS_11VertexList_EPNS_15VertexListNode_ES1_
002b25c3 T _ZN5Caver7ManaBar10SetMaxManaEi
002b25b5 T _ZN5Caver7ManaBar14LayoutSubviewsEv
002b25f1 T _ZN5Caver7ManaBar14SetCurrentManaEi
002b23f9 T _ZN5Caver7ManaBarC1Ev
002b23f9 T _ZN5Caver7ManaBarC2Ev
002a5477 T _ZN5Caver7MapNode11HasPortalToERKSs
002a50c9 T _ZN5Caver7MapNode23LoadFromProtobufMessageERKNS_5Proto7MapNodeE
002a51fd T _ZN5Caver7MapNode9AddPortalERKNS0_6PortalE
002a5081 T _ZN5Caver7MapNodeC1Ev
002a5081 T _ZN5Caver7MapNodeC2Ev
002cc7f3 T _ZN5Caver7MapView10SelectNodeERKN5boost10shared_ptrINS_7MapNodeEEE
002cc965 T _ZN5Caver7MapView10TouchBeganERKNS_7FWTouchE
002cc981 T _ZN5Caver7MapView10TouchEndedERKNS_7FWTouchE
002cc97b T _ZN5Caver7MapView10TouchMovedERKNS_7FWTouchE
002caedd T _ZN5Caver7MapView11UpdateNodesEv
002cafb9 T _ZN5Caver7MapView12HideFarNodesERKN5boost10shared_ptrINS_7MapNodeEEEff
002cc6dd T _ZN5Caver7MapView13AddPathSpriteEPNS_11MapViewNodeES2_
002cc813 T _ZN5Caver7MapView14ClearSelectionEv
002cb75d T _ZN5Caver7MapView14LayoutSubviewsEv
002cc7d5 T _ZN5Caver7MapView14SetNodePressedEjb
002ccb15 T _ZN5Caver7MapView14TouchCancelledERKNS_7FWTouchE
002cbcf9 T _ZN5Caver7MapView15AddPathToSpriteEPNS_6SpriteERKN5boost10shared_ptrINS_7MapPathEEENS_5ColorERKNS3_13intrusive_ptrINS_7TextureEEE
002caa9d T _ZN5Caver7MapView16UpdateTargetPathEv
002cc805 T _ZN5Caver7MapView17SelectNodeAtIndexEj
002cb099 T _ZN5Caver7MapView17UpdateNodesSpriteEv
002cb3f5 T _ZN5Caver7MapView17UpdatePathsSpriteEv
002cb989 T _ZN5Caver7MapView20AddNodeIconsToSpriteEPNS_11MapViewNodeERKNS_9RectangleEf
002cbc15 T _ZN5Caver7MapView21UpdateSelectionSpriteEv
002cc4e5 T _ZN5Caver7MapView22AddPathSegmentToSpriteEPNS_6SpriteERKNS_7Vector2ES5_fRKN5boost13intrusive_ptrINS_7TextureEEENS_5ColorE
002cc84d T _ZN5Caver7MapView22NearestNodeInDirectionEPNS_11MapViewNodeERKNS_7Vector2E
002cb68d T _ZN5Caver7MapView26RecursivelySetVisibleNodesEPNS_7MapNodeEi
002caded T _ZN5Caver7MapView26RecursivelySetVisibleNodesEPNS_7MapNodeERKNS_7Vector2ES5_
002cac79 T _ZN5Caver7MapView27UpdateDefaultNodeVisibilityEv
002cada5 T _ZN5Caver7MapView29LocationMarkerFrameForMapNodeEPNS_7MapNodeE
002cb519 T _ZN5Caver7MapView35AnimateLocationMarkerFromNodeToNodeERKN5boost10shared_ptrINS_7MapNodeEEES6_
002ca4ad T _ZN5Caver7MapView4InitERKN5boost10shared_ptrINS_3MapEEERKNS2_INS_9GameStateEEEbb
002cb761 T _ZN5Caver7MapView6UpdateEf
002cb8c5 T _ZN5Caver7MapView8DrawRectEPNS_16RenderingContextERKNS_9RectangleERKNS_7Matrix4E
002c966d T _ZN5Caver7MapViewC1Ev
002c966d T _ZN5Caver7MapViewC2Ev
002a5851 T _ZN5Caver7MapZone23LoadFromProtobufMessageERKNS_5Proto7MapZoneE
002a5831 T _ZN5Caver7MapZoneC1Ev
002a5831 T _ZN5Caver7MapZoneC2Ev
0030fb99 T _ZN5Caver7Matrix412PreTranslateEfff
0030fc47 T _ZN5Caver7Matrix412PreTranslateERKNS_7Vector3E
0030fcfd T _ZN5Caver7Matrix412RotationAxisEffff
0030fc53 T _ZN5Caver7Matrix413PostTranslateEfff
0030fcf1 T _ZN5Caver7Matrix413PostTranslateERKNS_7Vector3E
003100e5 T _ZN5Caver7Matrix414PerspectiveFovEffff
00310205 T _ZN5Caver7Matrix422FromRotationQuaternionERKNS_10QuaternionE
00310175 T _ZN5Caver7Matrix45OrthoEffffff
0030ff0d T _ZN5Caver7Matrix46LookAtERKNS_7Vector3ES3_S3_
0030fe2d T _ZN5Caver7Matrix49RotationXEf
0030fe77 T _ZN5Caver7Matrix49RotationYEf
0030fec1 T _ZN5Caver7Matrix49RotationZEf
0030f2e1 T _ZN5Caver7Matrix4C1ERKNS_7Matrix3E
0030f2e1 T _ZN5Caver7Matrix4C2ERKNS_7Matrix3E
0030f3c9 T _ZN5Caver7Matrix4mIERKS0_
0030f42d T _ZN5Caver7Matrix4mLEf
0030f35d T _ZN5Caver7Matrix4pLERKS0_
00310c6d T _ZN5Caver7Polygon11SetVerticesEiPKNS_7Vector2E
00310e2d T _ZN5Caver7Polygon21SplitEdgesToMaxLengthEf
00310c31 T _ZN5Caver7PolygonC1EiPKNS_7Vector2Eb
00310c31 T _ZN5Caver7PolygonC2EiPKNS_7Vector2Eb
00319295 T _ZN5Caver7Program14InitWithStringERKSsPSs
00319205 T _ZN5Caver7Program23LoadFromProtobufMessageERKNS_5Proto7ProgramE
003191a1 T _ZN5Caver7ProgramD1Ev
003191a1 T _ZN5Caver7ProgramD2Ev
002d7b35 T _ZN5Caver7TabView10TouchBeganERKNS_7FWTouchE
002d7881 T _ZN5Caver7TabView12UpdateSpriteEv
002d7787 T _ZN5Caver7TabView14LayoutSubviewsEv
002d7791 T _ZN5Caver7TabView19BottomForTabAtIndexEi
002d77dd T _ZN5Caver7TabView19CenterForTabAtIndexEi
002d7b2d T _ZN5Caver7TabView19SetSelectedTabIndexEi
002d7831 T _ZN5Caver7TabView6AddTabERKSs
002d7ae1 T _ZN5Caver7TabView6UpdateEf
002d7ae5 T _ZN5Caver7TabView8DrawRectEPNS_16RenderingContextERKNS_9RectangleERKNS_7Matrix4E
002d7789 T _ZN5Caver7TabView9TabHeightEv
002d74f1 T _ZN5Caver7TabViewC1Ev
002d74f1 T _ZN5Caver7TabViewC2Ev
0031df3d T _ZN5Caver7Texture11GetBindingsEPSt6vectorINS_7BindingESaIS2_EE
0031e8f1 T _ZN5Caver7Texture12InitWithDataEPKviiNS_11PixelFormatE
0031e857 T _ZN5Caver7Texture12InitWithFileERKSsNS_9ImageTypeEf
0031db35 T _ZN5Caver7Texture16CreateSubtextureERKNS_9RectangleEf
0031dbe1 T _ZN5Caver7Texture16InitWithResourceERKSsf
0031eca3 T _ZN5Caver7Texture17Pow2FromDimensionEi
0031e853 T _ZN5Caver7Texture19PerformBindedActionEi
0031d851 T _ZN5Caver7Texture19SetLoadPNGFilesOnlyEb
0031ed35 T _ZN5Caver7Texture19SetNearestFilteringEv
0031e8af T _ZN5Caver7Texture20SetDefaultParametersEb
0031e899 T _ZN5Caver7Texture21InitWithParentTextureEPS0_RKNS_9RectangleEf
0031eba5 T _ZN5Caver7Texture21LoadFromParentTextureEv
0031e6e9 T _ZN5Caver7Texture22ValueForBindedPropertyEi
0031d999 T _ZN5Caver7Texture23LoadFromProtobufMessageERKNS_5Proto7TextureE
0031e785 T _ZN5Caver7Texture25SetValueForBindedPropertyEiRKNS_12BindingValueE
0031e4e1 T _ZN5Caver7Texture30GetEnumValuesForBindedPropertyEiPSt6vectorINS_12BindingValueESaIS2_EE
0031e2dd T _ZN5Caver7Texture4LoadEv
0031edad T _ZN5Caver7Texture54ConvertSubtextureCoordinatesToParentTextureCoordinatesERKNS_7Vector2E
0031ecb1 T _ZN5Caver7Texture6CreateEiiNS_11PixelFormatEf
0031ec83 T _ZN5Caver7Texture6ReloadEb
0031ec27 T _ZN5Caver7Texture6UnloadEv
0031d95f T _ZN5Caver7Texture9SharedPtrEv
0031d85d T _ZN5Caver7TextureC1Ev
0031d85d T _ZN5Caver7TextureC2Ev
0031d93d T _ZN5Caver7TextureD0Ev
0031d8b1 T _ZN5Caver7TextureD1Ev
0031d8b1 T _ZN5Caver7TextureD2Ev
00312875 T _ZN5Caver7Vector216RotateWithSinCosEff
003128c1 T _ZN5Caver7Vector26RotateEf
00312bd9 T _ZN5Caver7Vector29FromAngleEf
00312801 T _ZN5Caver7Vector29NormalizeEv
003127f5 T _ZN5Caver7Vector2C1ERKNS_7Vector3E
003127f5 T _ZN5Caver7Vector2C2ERKNS_7Vector3E
00312c29 T _ZN5Caver7Vector39NormalizeEv
00312c19 T _ZN5Caver7Vector3C1ERKNS_7Vector4E
00312c19 T _ZN5Caver7Vector3C2ERKNS_7Vector4E
00312d15 T _ZN5Caver7Vector49NormalizeEv
001cf6d9 T _ZN5Caver8AnimNode23UpdateWithModelInstanceEfPNS_13ModelInstanceE
00313c79 T _ZN5Caver8CopyFileERKSsS1_
00320b23 T _ZN5Caver8DateTime16SecondsSinceDateERKS0_
00320b11 T _ZN5Caver8DateTime21SaveToProtobufMessageEPNS_5Proto8DateTimeE
00320b07 T _ZN5Caver8DateTime23LoadFromProtobufMessageERKNS_5Proto8DateTimeE
00320b39 T _ZN5Caver8DateTime30FormattedTimeIntervalSinceDateERKS0_
00320afd T _ZN5Caver8DateTime33DateWithSecondsSinceReferenceDateEd
00320ae9 T _ZN5Caver8DateTime3NowEv
00313c7d T _ZN5Caver8FindFileERKSsS1_
0031c185 T _ZN5Caver8FontText13BoundsForLineEi
0031c26b T _ZN5Caver8FontText13TranslateLineEiRKNS_7Vector2E
0031c0b1 T _ZN5Caver8FontText17AlignHorizontallyENS_16GUITextAlignmentE
0031c31b T _ZN5Caver8FontText25BoundsForCharacterAtIndexEi
0031b6f5 T _ZN5Caver8FontText5ClearEv
0031b855 T _ZN5Caver8FontText7AddTextERKSsfRKNS_7Vector2E
0031b72d T _ZN5Caver8FontText8SetColorERKNS_5ColorE
0031c055 T _ZN5Caver8FontText9TranslateERKNS_7Vector2E
0029e973 T _ZN5Caver8GameData11ItemForNameERKSs
0029eb19 T _ZN5Caver8GameData12QuestForNameERKSs
0029ea81 T _ZN5Caver8GameData12SkillForNameERKSs
0029e731 T _ZN5Caver8GameData14AddEntityClassERKN5boost10shared_ptrINS_11EntityClassEEE
0029ec73 T _ZN5Caver8GameData18EntityClassForNameERKSs
0029e399 T _ZN5Caver8GameData23LoadFromProtobufMessageERKNS_5Proto8GameDataE
0029edfb T _ZN5Caver8GameData29EntityDamageMultiplierAtLevelEi
0029edab T _ZN5Caver8GameData29EntityHealthMultiplierAtLevelEi
0029e639 T _ZN5Caver8GameData7AddItemERKN5boost10shared_ptrINS_4ItemEEE
0029e6ad T _ZN5Caver8GameData8AddQuestERKN5boost10shared_ptrINS_5QuestEEE
0029e6a5 T _ZN5Caver8GameData8AddSkillERKN5boost10shared_ptrINS_5SkillEEE
00302741 T _ZN5Caver8GUILabel10UpdateTextEv
0030286d T _ZN5Caver8GUILabel12UpdateBoundsEv
00302af9 T _ZN5Caver8GUILabel25BoundsForCharacterAtIndexEi
003029d1 T _ZN5Caver8GUILabel7AddTextERKSs
00302a65 T _ZN5Caver8GUILabel7AddTextERKSsNS_5ColorE
00302a83 T _ZN5Caver8GUILabel7AddTextERKSsRKN5boost10shared_ptrINS_13GradientColorEEE
003026b5 T _ZN5Caver8GUILabel8DrawRectEPNS_16RenderingContextERKNS_9RectangleERKNS_7Matrix4E
003029ad T _ZN5Caver8GUILabel9ClearTextEv
00302aa3 T _ZN5Caver8GUILabel9SetBoundsERKNS_9RectangleE
003025d9 T _ZN5Caver8GUILabelC1Ev
003025d9 T _ZN5Caver8GUILabelC2Ev
002d7f87 T _ZN5Caver8MeshData23LoadFromProtobufMessageERKNS_5Proto8MeshDataEPh
002deb01 T _ZN5Caver8SkeletonC1Ei
002deb01 T _ZN5Caver8SkeletonC2Ei
001e60b5 T _ZN5Caver9Component10BindOutletEiRKSsPNS_19ComponentOutletBaseEb
001e5b71 T _ZN5Caver9Component11GetBindingsEPSt6vectorINS_7BindingESaIS2_EE
001e5aff T _ZN5Caver9Component17RegisterInterfaceEPNS_16ComponentManagerEl
001e5b17 T _ZN5Caver9Component18AutoConnectOutletsEv
001e5afd T _ZN5Caver9Component18RegisterInterfacesEPNS_16ComponentManagerE
001e5b0b T _ZN5Caver9Component18UpdateObjectBoundsEv
001e5e95 T _ZN5Caver9Component22ValueForBindedPropertyEi
001e5971 T _ZN5Caver9Component23LoadFromProtobufMessageERKNS_5Proto9ComponentE
001e624d T _ZN5Caver9Component25NewProgramStateForProgramERKNS_7ProgramE
001e6061 T _ZN5Caver9Component25SetValueForBindedPropertyEiRKNS_12BindingValueE
001e5a9f T _ZN5Caver9Component25UpdateBindingDependenciesEv
001e5cbf T _ZN5Caver9Component30GetEnumValuesForBindedPropertyEiPSt6vectorINS_12BindingValueESaIS2_EE
003124f1 T _ZN5Caver9CubicRootEf
002a026d T _ZN5Caver9GameEvent11ClearEventsEv
002a01c1 T _ZN5Caver9GameEvent13ProcessEventsEv
002a02e1 T _ZN5Caver9GameEvent16SetEventsEnabledEb
002a02a9 T _ZN5Caver9GameEvent17SetFirstResponderEPNS_19IGameEventResponderE
002a0119 T _ZN5Caver9GameEvent9SendEventEPS0_
002a1eb1 T _ZN5Caver9GameState15AllNodesVisitedEv
002a1fc9 T _ZN5Caver9GameState16PercentCompletedEv
002a1cb5 T _ZN5Caver9GameState17CurrentLevelStateEb
002a2349 T _ZN5Caver9GameState18CurrentGuideTargetEv
002a2201 T _ZN5Caver9GameState20GuideTargetCompletedERKN5boost10shared_ptrINS_11GuideTargetEEE
002a1dcd T _ZN5Caver9GameState21GetAllCompletedQuestsEPSt6vectorIPNS_10QuestStateESaIS3_EE
002a1be5 T _ZN5Caver9GameState21StateForLevelWithNameERKSsb
002a1ccb T _ZN5Caver9GameState21StateForQuestWithNameERKSs
002a1e4d T _ZN5Caver9GameState22GetAllQuestsInProgressEPSt6vectorIPNS_10QuestStateESaIS3_EE
002a12a1 T _ZN5Caver9GameState23LoadFromProtobufMessageERKNS_5Proto9GameStateE
002a1ce9 T _ZN5Caver9GameState24AddStateForQuestWithNameERKSs
002a107d T _ZN5Caver9GameStateC1ERKN5boost10shared_ptrINS_8GameDataEEE
002a107d T _ZN5Caver9GameStateC2ERKN5boost10shared_ptrINS_8GameDataEEE
003017f5 T _ZN5Caver9GUIButton10TouchBeganERKNS_7FWTouchE
00301961 T _ZN5Caver9GUIButton10TouchEndedERKNS_7FWTouchE
0030189d T _ZN5Caver9GUIButton10TouchMovedERKNS_7FWTouchE
003017ad T _ZN5Caver9GUIButton11CancelPressEv
00301649 T _ZN5Caver9GUIButton12SetTextColorENS_5ColorE
003016f9 T _ZN5Caver9GUIButton12SetTintColorENS_5ColorE
00300ec9 T _ZN5Caver9GUIButton13SetButtonTypeENS_13GUIButtonTypeE
00301011 T _ZN5Caver9GUIButton14LayoutSubviewsEv
0030172d T _ZN5Caver9GUIButton14StateDidChangeENS_10GUIControl5StateE
003019bf T _ZN5Caver9GUIButton14TouchCancelledERKNS_7FWTouchE
0030169d T _ZN5Caver9GUIButton18SetBackgroundColorENS_5ColorE
00301499 T _ZN5Caver9GUIButton19SetHighlightedImageERKN5boost13intrusive_ptrINS_7TextureEEE
0030153d T _ZN5Caver9GUIButton23SetFrameTextureForStateENS_10GUIControl5StateERKN5boost13intrusive_ptrINS_7TextureEEE
003010c5 T _ZN5Caver9GUIButton8DrawRectEPNS_16RenderingContextERKNS_9RectangleERKNS_7Matrix4E
003013bd T _ZN5Caver9GUIButton8SetImageERKN5boost13intrusive_ptrINS_7TextureEEE
00301339 T _ZN5Caver9GUIButton8SetImageERKSs
00301305 T _ZN5Caver9GUIButton8SetTitleERKSs
00300cad T _ZN5Caver9GUIButtonC1ENS_13GUIButtonTypeE
00300cad T _ZN5Caver9GUIButtonC2ENS_13GUIButtonTypeE
0030a2a9 T _ZN5Caver9GUIEffect14CreateVerticesEv
0030a715 T _ZN5Caver9GUIEffect4DrawEPNS_16RenderingContextE
0030a67d T _ZN5Caver9GUIEffect6FadeInEf
0030a58d T _ZN5Caver9GUIEffect6UpdateEf
0030a559 T _ZN5Caver9GUIEffect7FadeOutEf
0030a6e1 T _ZN5Caver9GUIEffect8HideBarsEf
0030a28f T _ZN5Caver9GUIEffect8SetFrameERKNS_9RectangleE
0030a6ad T _ZN5Caver9GUIEffect8ShowBarsEf
0030a259 T _ZN5Caver9GUIEffectC1Ev
0030a259 T _ZN5Caver9GUIEffectC2Ev
00305535 T _ZN5Caver9GUISlider10TouchBeganERKNS_7FWTouchE
003056b9 T _ZN5Caver9GUISlider10TouchEndedERKNS_7FWTouchE
00305659 T _ZN5Caver9GUISlider10TouchMovedERKNS_7FWTouchE
00305115 T _ZN5Caver9GUISlider12UpdateSpriteEv
003052d7 T _ZN5Caver9GUISlider13IndicatorSizeEv
00304eef T _ZN5Caver9GUISlider13SetBarTextureERKN5boost13intrusive_ptrINS_7TextureEEE
00304f05 T _ZN5Caver9GUISlider13SetPegTextureERKN5boost13intrusive_ptrINS_7TextureEEE
00304ed1 T _ZN5Caver9GUISlider14LayoutSubviewsEv
003056d7 T _ZN5Caver9GUISlider14TouchCancelledERKNS_7FWTouchE
00305291 T _ZN5Caver9GUISlider15IndicatorCenterEv
00304ed9 T _ZN5Caver9GUISlider15SetFrameTextureERKN5boost13intrusive_ptrINS_7TextureEEE
003054cd T _ZN5Caver9GUISlider19MaxIndicatorCenterXEv
003054c9 T _ZN5Caver9GUISlider19MinIndicatorCenterXEv
003054df T _ZN5Caver9GUISlider24SetValueFromViewLocationEf
00304f1d T _ZN5Caver9GUISlider6UpdateEf
00304f85 T _ZN5Caver9GUISlider8DrawRectEPNS_16RenderingContextERKNS_9RectangleERKNS_7Matrix4E
00304e79 T _ZN5Caver9GUISliderC1Ev
00304e79 T _ZN5Caver9GUISliderC2Ev
00305a0d T _ZN5Caver9GUISwitch10TouchBeganERKNS_7FWTouchE
00305b75 T _ZN5Caver9GUISwitch10TouchEndedERKNS_7FWTouchE
00305ab1 T _ZN5Caver9GUISwitch10TouchMovedERKNS_7FWTouchE
003059c5 T _ZN5Caver9GUISwitch11CancelPressEv
0030591d T _ZN5Caver9GUISwitch14LayoutSubviewsEv
00305be1 T _ZN5Caver9GUISwitch14TouchCancelledERKNS_7FWTouchE
00305939 T _ZN5Caver9GUISwitch17SetOnFrameTextureERKN5boost13intrusive_ptrINS_7TextureEEE
003059ad T _ZN5Caver9GUISwitch18SetOffFrameTextureERKN5boost13intrusive_ptrINS_7TextureEEE
00305995 T _ZN5Caver9GUISwitch18UpdateFrameTextureEv
003057f9 T _ZN5Caver9GUISwitchC1Ev
003057f9 T _ZN5Caver9GUISwitchC2Ev
00308765 T _ZN5Caver9GUIWindow10BeginTouchERKNS_7FWTouchE
003079fd T _ZN5Caver9GUIWindow10mainWindowEv
00308c91 T _ZN5Caver9GUIWindow10MouseMovedERKNS_7Vector2ES3_jd
00308c83 T _ZN5Caver9GUIWindow10TouchBeganERKNS_7FWTouchE
00308c87 T _ZN5Caver9GUIWindow10TouchEndedERKNS_7FWTouchE
00308c85 T _ZN5Caver9GUIWindow10TouchMovedERKNS_7FWTouchE
00308a9d T _ZN5Caver9GUIWindow11CancelTouchERKNS_7FWTouchE
00307a09 T _ZN5Caver9GUIWindow13SetMainWindowERKN5boost10shared_ptrIS0_EE
003086b1 T _ZN5Caver9GUIWindow14CancelDownKeysEv
00307a3b T _ZN5Caver9GUIWindow14LayoutSubviewsEv
00308c89 T _ZN5Caver9GUIWindow14TouchCancelledERKNS_7FWTouchE
00307c6d T _ZN5Caver9GUIWindow15UpdateModalFadeEbf
003082fd T _ZN5Caver9GUIWindow16CancelAllTouchesEv
00308395 T _ZN5Caver9GUIWindow16DismissModalViewEPNS_7GUIViewE
00308de3 T _ZN5Caver9GUIWindow16HandleMouseEventERKNS_13GUIMouseEventE
003081e5 T _ZN5Caver9GUIWindow16PresentModalViewERKN5boost10shared_ptrINS_7GUIViewEEEb
00308d3d T _ZN5Caver9GUIWindow17MouseWheelRotatedEfRKNS_7Vector2Ejd
00308637 T _ZN5Caver9GUIWindow17SetFirstResponderERKN5boost10shared_ptrINS_7GUIViewEEE
00308129 T _ZN5Caver9GUIWindow18DismissPopoverViewEPNS_14GUIPopoverViewE
003083e5 T _ZN5Caver9GUIWindow20DismissAllModalViewsEv
00307a61 T _ZN5Caver9GUIWindow21SetRootViewControllerERKN5boost10shared_ptrINS_17GUIViewControllerEEE
003081c7 T _ZN5Caver9GUIWindow22DismissAllPopoverViewsEv
00308411 T _ZN5Caver9GUIWindow24DragAndDropItemWithTouchERKNS_7FWTouchERKN5boost10shared_ptrINS_16GUIDraggableItemEEE
00308005 T _ZN5Caver9GUIWindow31PresentPopoverViewFromRectangleERKN5boost10shared_ptrINS_7GUIViewEEERKNS_9RectangleEj
00308eb1 T _ZN5Caver9GUIWindow5KeyUpEjjd
00309023 T _ZN5Caver9GUIWindow6EffectEv
00307b65 T _ZN5Caver9GUIWindow6UpdateEf
003083d1 T _ZN5Caver9GUIWindow7DismissEv
00308f85 T _ZN5Caver9GUIWindow7KeyCharEjd
00308de5 T _ZN5Caver9GUIWindow7KeyDownEjjd
00308d37 T _ZN5Caver9GUIWindow7MouseUpERKNS_7Vector2Ejd
00307d15 T _ZN5Caver9GUIWindow8DrawRectEPNS_16RenderingContextERKNS_9RectangleERKNS_7Matrix4E
00308b51 T _ZN5Caver9GUIWindow8EndTouchERKNS_7FWTouchE
00307a59 T _ZN5Caver9GUIWindow8SetTitleERKSs
00308c8b T _ZN5Caver9GUIWindow9MouseDownERKNS_7Vector2Ejd
0030898d T _ZN5Caver9GUIWindow9MoveTouchERKNS_7FWTouchE
003077c9 T _ZN5Caver9GUIWindowC1Ev
003077c9 T _ZN5Caver9GUIWindowC2Ev
003079c9 T _ZN5Caver9GUIWindowD0Ev
0030786d T _ZN5Caver9GUIWindowD1Ev
0030786d T _ZN5Caver9GUIWindowD2Ev
002b0125 T _ZN5Caver9HealthBar12SetMaxHealthEi
002b060d T _ZN5Caver9HealthBar12ShatterHeartEi
002aff81 T _ZN5Caver9HealthBar12UpdateSpriteEv
002aff5f T _ZN5Caver9HealthBar14LayoutSubviewsEv
002b0143 T _ZN5Caver9HealthBar16SetCurrentHealthEi
002b0589 T _ZN5Caver9HealthBar19AddAnimationToHeartEiRKN5boost10shared_ptrINS_12GUIAnimationEEE
002b0991 T _ZN5Caver9HealthBar22PositionOfHeartAtIndexEi
002b0151 T _ZN5Caver9HealthBar6UpdateEf
002b08dd T _ZN5Caver9HealthBar8DrawRectEPNS_16RenderingContextERKNS_9RectangleERKNS_7Matrix4E
002b0745 T _ZN5Caver9HealthBar8PopHeartEi
002afba1 T _ZN5Caver9HealthBarC1Ev
002afba1 T _ZN5Caver9HealthBarC2Ev
00226e0b T _ZN5Caver9NextIndexEii
002ced09 T _ZN5Caver9PauseView10TouchEndedERKNS_7FWTouchE
002cec99 T _ZN5Caver9PauseView14LayoutSubviewsEv
002cede1 T _ZN5Caver9PauseView19HandleKeyboardEventERKNS_16GUIKeyboardEventE
002ceb3d T _ZN5Caver9PauseViewC1Ev
002ceb3d T _ZN5Caver9PauseViewC2Ev
002ddb51 T _ZN5Caver9PODLoader10CreateMeshEi
002dd445 T _ZN5Caver9PODLoader11CreateModelEv
002dd5c5 T _ZN5Caver9PODLoader11HasSkeletonEv
002de0ed T _ZN5Caver9PODLoader12DestroyModelEv
002dd60d T _ZN5Caver9PODLoader14CreateSkeletonEv
002dd39d T _ZN5Caver9PODLoader17ReadModelFromFileERKSs
002de1d9 T _ZN5Caver9PODLoader23CreateAnimationFromFileERKSs
002dd2e1 T _ZN5Caver9PODLoaderC1Ev
002dd2e1 T _ZN5Caver9PODLoaderC2Ev
00226e01 T _ZN5Caver9PrevIndexEii
002a70a9 T _ZN5Caver9QuestText23LoadFromProtobufMessageERKNS_5Proto9QuestTextE
00312017 T _ZN5Caver9Rectangle14FlipVerticallyEv
00311e1f T _ZN5Caver9Rectangle16ExpandVerticallyEf
00312001 T _ZN5Caver9Rectangle16FlipHorizontallyEv
00311dfd T _ZN5Caver9Rectangle18ExpandHorizontallyEf
00312345 T _ZN5Caver9Rectangle20ExpandToIncludePointERKNS_7Vector2E
003123c7 T _ZN5Caver9Rectangle24ExpandToincludeRectangleERKS0_
00311ab1 T _ZN5Caver9Rectangle25TransformedRectsIntersectERKS0_NS_7Vector2EffS2_S3_ff
00311d89 T _ZN5Caver9Rectangle5InsetEf
0031202d T _ZN5Caver9Rectangle5ScaleERKNS_7Vector2E
00311dc3 T _ZN5Caver9Rectangle6OutsetEf
00311ed9 T _ZN5Caver9Rectangle6RotateEf
003121fd T _ZN5Caver9Rectangle9TransformERKNS_7Matrix4E
0031209b T _ZN5Caver9Rectangle9TransformERKNS_7Vector2Ef
003120cb T _ZN5Caver9Rectangle9TransformERKNS_7Vector2EfS3_
00311eb5 T _ZN5Caver9Rectangle9TranslateERKNS_7Vector2E
002ee4ad T _ZN5Caver9SceneGrid10MoveObjectEPNS_14SceneGridEntryERKNS_9RectangleEf
002ee517 T _ZN5Caver9SceneGrid12RemoveObjectEPNS_14SceneGridEntryE
002ee43b T _ZN5Caver9SceneGrid16LayerForMinDepthEf
002ee51d T _ZN5Caver9SceneGrid18GetObjectsInBoundsERKNS_9RectangleEPPPv
002ee689 T _ZN5Caver9SceneGrid20GetObjectsNearCameraEfPPPv
002ee619 T _ZN5Caver9SceneGrid28UpdateVisibleAreasWithCameraEPNS_6CameraE
002ee755 T _ZN5Caver9SceneGrid4DrawEPNS_16RenderingContextERKNS_7Matrix4E
002ee1c5 T _ZN5Caver9SceneGrid5ResetEv
002ee335 T _ZN5Caver9SceneGrid8AddLayerEffff
002ee46d T _ZN5Caver9SceneGrid9AddObjectEPNS_14SceneGridEntryERKNS_9RectangleEf
002ee225 T _ZN5Caver9SceneGrid9SetBoundsERKNS_9RectangleE
002ee1a5 T _ZN5Caver9SceneGridD1Ev
002ee1a5 T _ZN5Caver9SceneGridD2Ev
00287395 T _ZN5Caver9SceneView13InitWithSceneERKN5boost10shared_ptrINS_5SceneEEE
002874ad T _ZN5Caver9SceneView14LayoutSubviewsEv
002874e5 T _ZN5Caver9SceneView6UpdateEf
0028750d T _ZN5Caver9SceneView8DrawRectEPNS_16RenderingContextERKNS_9RectangleERKNS_7Matrix4E
00287349 T _ZN5Caver9SceneViewC1Ev
00287349 T _ZN5Caver9SceneViewC2Ev
002b7ded T _ZN5Caver9StoreView10AnimateOutEv
002b79a9 T _ZN5Caver9StoreView14LayoutSubviewsEv
002b780d T _ZN5Caver9StoreView15SetProductCountEi
002b7ea5 T _ZN5Caver9StoreView19HandleKeyboardEventERKNS_16GUIKeyboardEventE
002b7cb1 T _ZN5Caver9StoreView9AnimateInEv
002b7355 T _ZN5Caver9StoreViewC1Ev
002b7355 T _ZN5Caver9StoreViewC2Ev
